ccopy_reg
_reconstructor
p0
(csklearn.pipeline
Pipeline
p1
c__builtin__
object
p2
Ntp3
Rp4
(dp5
S'steps'
p6
(lp7
(S'pca'
p8
g0
(csklearn.decomposition.pca
PCA
p9
g2
Ntp10
Rp11
(dp12
S'copy'
p13
I01
sS'n_components'
p14
NsS'whiten'
p15
I00
sbtp16
a(S'gridsearchcv'
p17
g0
(csklearn.grid_search
GridSearchCV
p18
g2
Ntp19
Rp20
(dp21
S'scoring'
p22
NsS'n_jobs'
p23
I1
sS'verbose'
p24
I0
sS'fit_params'
p25
(dp26
sS'refit'
p27
I01
sS'iid'
p28
I01
sS'estimator'
p29
g0
(csklearn.ensemble.forest
RandomForestClassifier
p30
g2
Ntp31
Rp32
(dp33
S'warm_start'
p34
I00
sS'base_estimator'
p35
g0
(csklearn.tree.tree
DecisionTreeClassifier
p36
g2
Ntp37
Rp38
(dp39
S'splitter'
p40
S'best'
p41
sS'tree_'
p42
NsS'n_features_'
p43
NsS'n_outputs_'
p44
NsS'n_classes_'
p45
NsS'random_state'
p46
NsS'classes_'
p47
NsS'max_features_'
p48
NsS'min_samples_leaf'
p49
I1
sS'max_features'
p50
NsS'min_weight_fraction_leaf'
p51
F0.0
sS'criterion'
p52
S'gini'
p53
sS'max_leaf_nodes'
p54
NsS'min_samples_split'
p55
I2
sS'max_depth'
p56
NsS'class_weight'
p57
NsbsS'estimators_'
p58
(lp59
sg23
I1
sg24
I0
sg46
NsS'bootstrap'
p60
I01
sS'oob_score'
p61
I00
sg49
I1
sS'n_estimators'
p62
I10
sg50
S'auto'
p63
sS'estimator_params'
p64
(S'criterion'
p65
S'max_depth'
p66
S'min_samples_split'
p67
S'min_samples_leaf'
p68
S'min_weight_fraction_leaf'
p69
S'max_features'
p70
S'max_leaf_nodes'
p71
S'random_state'
p72
tp73
sg52
g53
sg51
F0.0
sg54
Nsg55
I2
sg56
Nsg57
NsbsS'error_score'
p74
S'raise'
p75
sS'pre_dispatch'
p76
S'2*n_jobs'
p77
sS'param_grid'
p78
(dp79
g50
(lp80
g63
aS'sqrt'
p81
aS'log2'
p82
asg52
(lp83
g53
aS'entropy'
p84
assS'cv'
p85
Nsbtp86
asS'named_steps'
p87
(dp88
g8
g11
sg17
g20
ssb.