(dp0
S'METTS MARK'
p1
(dp2
S'to_messages'
p3
F-0.4905176690922968
sS'deferral_payments'
p4
S'NaN'
p5
sS'poi_color'
p6
S'green'
p7
sS'expenses'
p8
F0.8698416985463063
sS'poi'
p9
I00
sS'long_term_incentive'
p10
S'NaN'
p11
sS'email_address'
p12
S'mark.metts@enron.com'
p13
sS'from_poi_to_this_person'
p14
F-0.3092157110434346
sS'deferred_income'
p15
S'NaN'
p16
sS'restricted_stock_deferred'
p17
S'NaN'
p18
sS'shared_receipt_with_poi'
p19
F-0.4026631696789203
sS'loan_advances'
p20
S'NaN'
p21
sS'from_messages'
p22
F-0.3149266736078165
sS'mail_ratio'
p23
S'NaN'
p24
sS'director_fees'
p25
S'NaN'
p26
sS'stock_data'
p27
S'NaN'
p28
sS'bonus'
p29
F-0.4174111512411937
sS'total_stock_value'
p30
F-0.4235512839936957
sS'from_this_person_to_poi'
p31
F-0.40203165026465054
sS'restricted_stock'
p32
F-0.24996421968916238
sS'salary'
p33
F0.46124283287378887
sS'total_payments'
p34
F-0.16458440220864376
sS'exercised_stock_options'
p35
S'NaN'
p36
sS'other'
p37
F-0.3335470274297722
ssS'BAXTER JOHN C'
p38
(dp39
g3
S'NaN'
p40
sg4
F0.35222795634145404
sg6
g7
sg8
F-0.9324121344607155
sg9
I00
sg10
F0.9729364351854669
sg12
S'NaN'
p41
sg14
S'NaN'
p42
sg15
F-0.8545009565683013
sg17
g18
sg19
S'NaN'
p43
sg20
g21
sg22
S'NaN'
p44
sg23
g24
sg25
g26
sg27
F0.878614317148501
sg29
F-0.0012298670751162712
sg30
F1.1130131777676897
sg31
S'NaN'
p45
sg32
F1.2424778821001863
sg33
F-0.09589248346905511
sg34
F0.3173364600304341
sg35
F0.6766103908388827
sg37
F1.57947486831961
ssS'ELLIOTT STEVEN'
p46
(dp47
g3
g40
sg4
g5
sg6
g7
sg8
F0.5283202469240056
sg9
I00
sg10
g11
sg12
S'steven.elliott@enron.com'
p48
sg14
g42
sg15
F0.19140784328228108
sg17
g18
sg19
g43
sg20
g21
sg22
g44
sg23
g24
sg25
g26
sg27
F0.3448985705689162
sg29
F-0.590820019643726
sg30
F0.5092180476068117
sg31
g45
sg32
F0.2849032596994327
sg33
F-0.638772822674659
sg34
F-0.2541810025991431
sg35
F0.35108690566549644
sg37
F-0.32547273365068785
ssS'CORDES WILLIAM R'
p49
(dp50
g3
F-0.5071669058091698
sg4
g5
sg6
g7
sg8
S'NaN'
p51
sg9
I00
sg10
g11
sg12
S'bill.cordes@enron.com'
p52
sg14
F-0.6311315918011479
sg15
g16
sg17
g18
sg19
F-0.9492051015850405
sg20
g21
sg22
F-0.3241606152229669
sg23
g24
sg25
g26
sg27
F-0.4182989958718111
sg29
S'NaN'
p53
sg30
F-0.3541909428918977
sg31
F-0.41202434446198
sg32
F-0.3382963462949845
sg33
S'NaN'
p54
sg34
S'NaN'
p55
sg35
F-0.4196254944945341
sg37
S'NaN'
p56
ssS'HANNON KEVIN P'
p57
(dp58
g3
F-0.39836607982216254
sg4
g5
sg6
S'red'
p59
sg8
F-0.437079154616826
sg9
I01
sg10
F1.0088100880128057
sg12
S'kevin.hannon@enron.com'
p60
sg14
F-0.378197685491516
sg15
F-2.6918848402313373
sg17
g18
sg19
F-0.12005686016845754
sg20
g21
sg22
F-0.3132971544992606
sg23
g24
sg25
g26
sg27
F0.3059752308346697
sg29
F0.20686077500792244
sg30
F0.4651838906014197
sg31
F-0.20217776631806125
sg32
F-0.13084006144889537
sg33
F-0.23030703818610487
sg34
F-0.24607011052236685
sg35
F0.4688545091941188
sg37
F-0.326631960749708
ssS'MORDAUNT KRISTINA M'
p61
(dp62
g3
g40
sg4
g5
sg6
g7
sg8
F-0.4158465705602925
sg9
I00
sg10
g11
sg12
S'kristina.mordaunt@enron.com'
p63
sg14
g42
sg15
g16
sg17
g18
sg19
g43
sg20
g21
sg22
g44
sg23
g24
sg25
g26
sg27
g28
sg29
F-0.6081609064839791
sg30
F-0.48119076634741476
sg31
g45
sg32
F-0.4173377468780976
sg33
F-0.0959432932885542
sg34
F-0.21025263370581154
sg35
g36
sg37
F-0.33378376592485454
ssS'MEYER ROCKFORD G'
p64
(dp65
g3
F-0.7131528112365288
sg4
F0.7807390122878407
sg6
g7
sg8
g51
sg9
I00
sg10
g11
sg12
S'rockford.meyer@enron.com'
p66
sg14
F-0.7461015492146168
sg15
g16
sg17
g18
sg19
F-0.979757135045631
sg20
g21
sg22
F-0.31546984664400185
sg23
g24
sg25
g26
sg27
F-0.4294362640617694
sg29
g53
sg30
F-0.3667905866900964
sg31
F-0.41202434446198
sg32
F-0.3044933406830336
sg33
g54
sg34
F-0.081701681609129
sg35
F-0.448421285264025
sg37
g56
ssS'MCMAHON JEFFREY'
p67
(dp68
g3
F0.10885485271513126
sg4
g5
sg6
g7
sg8
F1.7982846922910878
sg9
I00
sg10
F-0.059830985804149084
sg12
S'jeffrey.mcmahon@enron.com'
p69
sg14
F-0.0792757962164966
sg15
g16
sg17
g18
sg19
F0.8924035820116687
sg20
g21
sg22
F-0.30460638592029554
sg23
g24
sg25
g26
sg27
F-0.3337776949652454
sg29
F0.9698597959790644
sg30
F-0.25857159830762333
sg31
F-0.15221429533141392
sg32
F-0.26163696660727365
sg33
F0.48755102830330926
sg34
F0.15560006339279606
sg35
F-0.3373983566946537
sg37
F-0.12083281239399454
ssS'HORTON STANLEY C'
p70
(dp71
g3
F0.10691889495735533
sg4
F1.7763261321719075
sg6
g7
sg8
g51
sg9
I00
sg10
g11
sg12
S'stanley.horton@enron.com'
p72
sg14
F-0.24023373659535321
sg15
g16
sg17
g18
sg19
F-0.08695882391948442
sg20
g21
sg22
F0.25214597616965323
sg23
g24
sg25
g26
sg27
F0.42309339114748745
sg29
g53
sg30
F0.5976802152901193
sg31
F-0.26213393150203806
sg32
F0.39944295003240754
sg33
g54
sg34
F0.0535869695751499
sg35
F0.40931546003911257
sg37
g56
ssS'PIPER GREGORY F'
p73
(dp74
g3
F-0.3236381103720116
sg4
F0.22370930892507437
sg6
g7
sg8
F-0.24149647532998353
sg9
I00
sg10
g11
sg12
S'greg.piper@enron.com'
p75
sg14
F-0.0447848089924559
sg15
F0.5813931978044439
sg17
F-0.2682197944688427
sg19
F-0.3687164658338197
sg20
g21
sg22
F-0.21009427762405056
sg23
g24
sg25
g26
sg27
F-0.4396630613890317
sg29
F-0.5561382459632195
sg30
F-0.37836021052622304
sg31
F0.06762497700983432
sg32
F-0.3279757373809437
sg33
F-0.4911420693523501
sg34
F-0.09335817084217216
sg35
F-0.37808679214116114
sg37
F-0.3342392536676725
ssS'HUMPHREY GENE E'
p76
(dp77
g3
F-0.7534207325982683
sg4
F1.6465261917987026
sg6
g7
sg8
F-1.0670080656709777
sg9
I00
sg10
g11
sg12
S'gene.humphrey@enron.com'
p78
sg14
F-0.6311315918011479
sg15
g16
sg17
g18
sg19
F-0.897436378221262
sg20
g21
sg22
F-0.3214447500420403
sg23
g24
sg25
g26
sg27
F-0.24990004243048008
sg29
g53
sg30
F-0.16368041614860934
sg31
F-0.2421485431073791
sg32
S'NaN'
p79
sg33
F-0.8658193238740202
sg34
F0.050252689629974104
sg35
F-0.12306527139543415
sg37
g56
ssS'UMANOFF ADAM S'
p80
(dp81
g3
F-0.7600029889747064
sg4
g5
sg6
g7
sg8
F-0.023206425760004652
sg9
I00
sg10
g11
sg12
S'adam.umanoff@enron.com'
p82
sg14
F-0.608137600318454
sg15
g16
sg17
g18
sg19
F-0.9636324507192082
sg20
g21
sg22
F-0.320901577005855
sg23
g24
sg25
g26
sg27
g28
sg29
F-0.28648745559728184
sg30
S'NaN'
p83
sg31
F-0.41202434446198
sg32
g79
sg33
F0.025413137817233603
sg34
F-0.15735071369691042
sg35
g36
sg37
g56
ssS'BLACHMAN JEREMY M'
p84
(dp85
g3
F0.1553178389017536
sg4
g5
sg6
g7
sg8
F0.6509877601249793
sg9
I00
sg10
F0.09887133793747023
sg12
S'jeremy.blachman@enron.com'
p86
sg14
F-0.45867665568094435
sg15
g16
sg17
g18
sg19
F0.9755730064321653
sg20
g21
sg22
F-0.3230742691505963
sg23
g24
sg25
g26
sg27
F-0.42964179315085177
sg29
F-0.24400228283866143
sg30
F-0.3670231027136345
sg31
F-0.3920389560673211
sg32
F-0.4259915190021107
sg33
F-0.20065104020514546
sg34
F-0.0641420118308432
sg35
F-0.39899379345653396
sg37
F-0.33460335603396935
ssS'SUNDE MARTIN'
p87
(dp88
g3
F0.22191478576924561
sg4
g5
sg6
g7
sg8
g51
sg9
I00
sg10
F-0.3129386349730306
sg12
S'marty.sunde@enron.com'
p89
sg14
F-0.32071270678478153
sg15
g16
sg17
g18
sg19
F1.1784045619066414
sg20
g21
sg22
F-0.31003811628214867
sg23
g24
sg25
g26
sg27
g28
sg29
F-0.3480476038801808
sg30
F-0.40612283803714855
sg31
F-0.282119319896697
sg32
F-0.19935549882543627
sg33
F-0.1501799528360655
sg34
F-0.11365410866751366
sg35
g36
sg37
F-0.2548390332987853
ssS'GIBBS DANA R'
p90
(dp91
g3
F-0.7375458789845055
sg4
F-0.2613717617864237
sg6
g7
sg8
g51
sg9
I00
sg10
F-0.32978729237245813
sg12
S'dana.gibbs@enron.com'
p92
sg14
F-0.7461015492146168
sg15
g16
sg17
g18
sg19
F-0.9789084674495034
sg20
g21
sg22
F-0.3241606152229669
sg23
g24
sg25
g26
sg27
F-0.25862630151026167
sg29
g53
sg30
F-0.173552474019603
sg31
F-0.41202434446198
sg32
g79
sg33
g54
sg34
F-0.17462908390591836
sg35
F-0.13479244496782114
sg37
g56
ssS'LOWRY CHARLES P'
p93
(dp94
g3
g40
sg4
g5
sg6
g7
sg8
g51
sg9
I00
sg10
g11
sg12
g41
sg14
g42
sg15
g16
sg17
F-0.20168329369576443
sg19
g43
sg20
g21
sg22
g44
sg23
g24
sg25
g26
sg27
F-0.508409767923862
sg29
g53
sg30
F-0.456133682428349
sg31
g45
sg32
F-0.44170645625849175
sg33
g54
sg34
g55
sg35
F-0.4704751286199456
sg37
g56
ssS'COLWELL WESLEY'
p95
(dp96
g3
F-0.12229850356331484
sg4
F-0.6313334690537656
sg6
g59
sg8
F-0.8171619284582448
sg9
I01
sg10
g11
sg12
S'wes.colwell@enron.com'
p97
sg14
F2.0131774287086395
sg15
F0.4638560217848776
sg17
g18
sg19
F-0.037736103344088515
sg20
g21
sg22
F-0.30895177020977804
sg23
g24
sg25
g26
sg27
g28
sg29
F-0.0012298670751162712
sg30
F-0.40622662069939924
sg31
F-0.3021047082913559
sg32
F-0.1996568629170733
sg33
F0.025147797648738437
sg34
F-0.11942080253526854
sg35
g36
sg37
F-0.2615900380430478
ssS'MULLER MARK S'
p98
(dp99
g3
F-0.7503232001858268
sg4
F0.0010249363947995895
sg6
g7
sg8
g51
sg9
I00
sg10
F1.1345857384832279
sg12
S's..muller@enron.com'
p100
sg14
F-0.608137600318454
sg15
F-0.1464320590822609
sg17
g18
sg19
F-0.9016797162018996
sg20
g21
sg22
F-0.32198792307822566
sg23
g24
sg25
g26
sg27
F-0.36706380070447014
sg29
F-0.07059341443612917
sg30
F-0.2962283260248878
sg31
F-0.41202434446198
sg32
F-0.3497672948390497
sg33
F-0.18310471587146532
sg34
F0.06098676079245907
sg35
F-0.3460781343961767
sg37
F-0.3341176463556089
ssS'JACKSON CHARLENE R'
p101
(dp102
g3
F-0.703085830896094
sg4
g5
sg6
g7
sg8
F-0.9545122398270154
sg9
I00
sg10
g11
sg12
S'charlene.jackson@enron.com'
p103
sg14
F-0.45867665568094435
sg15
g16
sg17
g18
sg19
F-0.899133713413517
sg20
g21
sg22
F-0.300261001630813
sg23
g24
sg25
g26
sg27
F-0.4605752064602121
sg29
F-0.6601835670047388
sg30
F-0.4020182184379565
sg31
F-0.2221631547127202
sg32
F-0.2696951223849835
sg33
F0.02523812621673679
sg34
F-0.21840473527362853
sg35
F-0.5045043522051974
sg37
F-0.3330469263535345
ssS'WESTFAHL RICHARD K'
p104
(dp105
g3
g40
sg4
g5
sg6
g7
sg8
F-0.05035984275569402
sg9
I00
sg10
F-0.5681890152466333
sg12
S'dick.westfahl@enron.com'
p106
sg14
g42
sg15
F0.6053116400124371
sg17
g18
sg19
g43
sg20
g21
sg22
g44
sg23
g24
sg25
g26
sg27
g28
sg29
g53
sg30
F-0.4541858441139832
sg31
g45
sg32
F-0.3389208544789815
sg33
F-1.243957291657127
sg34
F-0.19617047583772537
sg35
g36
sg37
F-0.04615800751813354
ssS'WALTERS GARETH W'
p107
(dp108
g3
g40
sg4
F-0.6111562073880216
sg6
g7
sg8
F-0.44258791493384286
sg9
I00
sg10
g11
sg12
g41
sg14
g42
sg15
g16
sg17
g18
sg19
g43
sg20
g21
sg22
g44
sg23
g24
sg25
g26
sg27
F-0.41936195605866494
sg29
g53
sg30
F-0.35539347474240124
sg31
g45
sg32
g79
sg33
g54
sg34
F-0.267283196662379
sg35
F-0.3508042437153262
sg37
g56
ssS'WALLS JR ROBERT H'
p109
(dp110
g3
F-0.5431757201038021
sg4
g5
sg6
g7
sg8
F-0.07061646533874025
sg9
I00
sg10
F-0.23842397297542478
sg12
S'rob.walls@enron.com'
p111
sg14
F-0.5506526216117196
sg15
g16
sg17
g18
sg19
F-0.8159642889930204
sg20
g21
sg22
F-0.25137542837413457
sg23
g24
sg25
g26
sg27
F0.23939571285799088
sg29
F-0.24400228283866143
sg30
F0.3898621692911363
sg31
F-0.41202434446198
sg32
F0.18003122274861846
sg33
F0.4121436106311839
sg34
F-0.08691315399657076
sg35
F0.25220428292094976
sg37
F-0.33479763990531347
ssS'KITCHEN LOUISE'
p112
(dp113
g3
F2.412644584468489
sg4
g5
sg6
g7
sg8
F-1.0500914001305321
sg9
I00
sg10
g11
sg12
S'louise.kitchen@enron.com'
p114
sg14
F2.139644381863455
sg15
g16
sg17
g18
sg19
F2.115333588031419
sg20
g21
sg22
F0.6079243148710352
sg23
g24
sg25
g26
sg27
F-0.4847396903821315
sg29
F1.316677532784129
sg30
F-0.429355612562846
sg31
F1.526558329819936
sg32
F-0.30284117205675815
sg33
F-0.07139085939950175
sg34
F0.08934553052088232
sg35
F-0.5234191541553822
sg37
F-0.2672134767636203
ssS'CHAN RONNIE'
p115
(dp116
g3
g40
sg4
g5
sg6
g7
sg8
g51
sg9
I00
sg10
g11
sg12
g41
sg14
g42
sg15
F0.5119179410274782
sg17
F-0.1701594069935696
sg19
g43
sg20
g21
sg22
g44
sg23
g24
sg25
F0.217964882866357
sg27
g28
sg29
g53
sg30
g83
sg31
g45
sg32
F-0.4955901780472643
sg33
g54
sg34
g55
sg35
g36
sg37
g56
ssS'BELFER ROBERT'
p117
(dp118
g3
g40
sg4
F-0.7322469234197067
sg6
g7
sg8
g51
sg9
I00
sg10
g11
sg12
g41
sg14
g42
sg15
g16
sg17
F-0.15025238953268563
sg19
g43
sg20
g21
sg22
g44
sg23
g24
sg25
F-2.1048939489046794
sg27
F-0.5647371864405212
sg29
g53
sg30
F-0.5198571554809116
sg31
g45
sg32
g79
sg33
g54
sg34
F-0.2656927843355139
sg35
F-0.5375582054550286
sg37
g56
ssS'SHANKMAN JEFFREY A'
p119
(dp120
g3
F0.44416273636192244
sg4
g5
sg6
g7
sg8
F2.7063843113218464
sg9
I00
sg10
F-0.22258120556999292
sg12
S'jeffrey.shankman@enron.com'
p121
sg14
F0.33461605047199183
sg15
g16
sg17
g18
sg19
F0.4697671191401659
sg20
g21
sg22
F1.125568218355641
sg23
g24
sg25
g26
sg27
F-0.2784133811596384
sg29
F0.553678511812987
sg30
F-0.19593769013691978
sg31
F0.41736927391636564
sg32
F-0.22992884147302953
sg33
F0.1130374943111363
sg34
F0.043768571195687035
sg35
F-0.2759660271644797
sg37
F-0.3339420713015053
ssS'WODRASKA JOHN'
p122
(dp123
g3
g40
sg4
g5
sg6
g7
sg8
g51
sg9
I00
sg10
g11
sg12
S'john.wodraska@enron.com'
p124
sg14
g42
sg15
g16
sg17
g18
sg19
g43
sg20
g21
sg22
g44
sg23
g24
sg25
g26
sg27
g28
sg29
g53
sg30
g83
sg31
g45
sg32
g79
sg33
g54
sg34
F-0.2565146612963894
sg35
g36
sg37
F-0.19838085985606746
ssS'BERGSIEKER RICHARD P'
p125
(dp126
g3
F-0.6546868869516957
sg4
g5
sg6
g7
sg8
F0.10807123644040093
sg9
I00
sg10
F-0.656193959986294
sg12
S'rick.bergsieker@enron.com'
p127
sg14
F-0.7001135662492293
sg15
F0.10109245088779747
sg17
g18
sg19
F-0.8006882722627252
sg20
g21
sg22
F-0.2986314825222571
sg23
g24
sg25
g26
sg27
g28
sg29
F-0.6601835670047388
sg30
F-0.4121953483529997
sg31
F-0.41202434446198
sg32
F-0.21698885410468655
sg33
F-0.5429059843509065
sg34
F-0.2112720152847008
sg35
g36
sg37
F-0.02731535027732588
ssS'URQUHART JOHN A'
p128
(dp129
g3
g40
sg4
g5
sg6
g7
sg8
F3.783780713953524
sg9
I00
sg10
g11
sg12
g41
sg14
g42
sg15
F0.5778552681954596
sg17
g18
sg19
g43
sg20
g21
sg22
g44
sg23
g24
sg25
F-1.2929550734887172
sg27
g28
sg29
g53
sg30
g83
sg31
g45
sg32
g79
sg33
g54
sg34
F-0.2523965578604982
sg35
g36
sg37
g56
ssS'BIBI PHILIPPE A'
p130
(dp131
g3
F-0.18076442784814795
sg4
g5
sg6
g7
sg8
F-0.339049246613219
sg9
I00
sg10
F-0.43662370301353554
sg12
S'philippe.bibi@enron.com'
p132
sg14
F-0.4816706471636381
sg15
g16
sg17
g18
sg19
F0.1353920862659247
sg20
g21
sg22
F-0.30895177020977804
sg23
g24
sg25
g26
sg27
F-0.30929267225989215
sg29
F-0.13995696179714207
sg30
F-0.23087157715194934
sg31
F-0.3320827908833443
sg32
F-0.34196472070247746
sg33
F-0.39779878539705166
sg34
F-0.06068947856355059
sg35
F-0.2716317752414583
sg37
F-0.028486810064541755
ssS'PIRO JIM'
p133
(dp134
g3
F-0.7805241412071312
sg4
g5
sg6
g7
sg8
g51
sg9
I00
sg10
g11
sg12
S'jim.piro@enron.com'
p135
sg14
F-0.7461015492146168
sg15
g16
sg17
g18
sg19
F-0.9958818193720538
sg20
g21
sg22
F-0.32198792307822566
sg23
g24
sg25
g26
sg27
g28
sg29
g53
sg30
F-0.5058668546229083
sg31
F-0.40203165026465054
sg32
F-0.4889921712976187
sg33
g54
sg34
g55
sg35
g36
sg37
g56
ssS'RIEKER PAULA H'
p136
(dp137
g3
F-0.28879087073204485
sg4
F-0.4862433293156375
sg6
g59
sg8
F-0.45373556376434154
sg9
I01
sg10
g11
sg12
S'paula.rieker@enron.com'
p138
sg14
F-0.3437066982674753
sg15
F0.5106271752295409
sg17
g18
sg19
F0.06919601376797847
sg20
g21
sg22
F-0.2861385026899948
sg23
g24
sg25
g26
sg27
F-0.2991351513602863
sg29
F-0.3480476038801808
sg30
F-0.21938032606371705
sg31
F0.06762497700983432
sg32
F-0.38393922699386007
sg33
F-0.19695321445271288
sg34
F-0.16065600998470464
sg35
F-0.24080978170395992
sg37
F-0.33339591775206007
ssS'WHALEY DAVID A'
p139
(dp140
g3
g40
sg4
g5
sg6
g7
sg8
g51
sg9
I00
sg10
g11
sg12
g41
sg14
g42
sg15
g16
sg17
g18
sg19
g43
sg20
g21
sg22
g44
sg23
g24
sg25
g26
sg27
F-0.5454140694287108
sg29
g53
sg30
F-0.49799682247400423
sg31
g45
sg32
g79
sg33
g54
sg34
g55
sg35
F-0.5202050143252377
sg37
g56
ssS'BECK SALLY W'
p141
(dp142
g3
F2.0293249484288545
sg4
g5
sg6
g7
sg8
F-0.36913054802937006
sg9
I00
sg10
g11
sg12
S'sally.beck@enron.com'
p143
sg14
F0.9094658375393369
sg15
g16
sg17
g18
sg19
F1.2412059640200777
sg20
g21
sg22
F2.028321804495636
sg23
g24
sg25
g26
sg27
g28
sg29
F-0.3480476038801808
sg30
F-0.493816585418836
sg31
F3.4451556157071934
sg32
F-0.4540005999319254
sg33
F-0.2978445793713737
sg34
F-0.1743607479361239
sg35
g36
sg37
F-0.33439180248517236
ssS'HAUG DAVID L'
p144
(dp145
g3
F-0.5811204921562104
sg4
g5
sg6
g7
sg8
F-1.1650162856418405
sg9
I00
sg10
g11
sg12
S'david.haug@enron.com'
p146
sg14
F-0.7001135662492293
sg15
g16
sg17
g18
sg19
F-0.5987053843843764
sg20
g21
sg22
F-0.3203584039696697
sg23
g24
sg25
g26
sg27
g28
sg29
g53
sg30
F-0.17370187207027654
sg31
F-0.34207548508067376
sg32
F0.47554849541601857
sg33
g54
sg34
F-0.27644572122407635
sg35
g36
sg37
g56
ssS'ECHOLS JOHN B'
p147
(dp148
g3
g40
sg4
g5
sg6
g7
sg8
F-0.708374756213534
sg9
I00
sg10
F1.7247105722993836
sg12
S'john.echols@enron.com'
p149
sg14
g42
sg15
g16
sg17
g18
sg19
g43
sg20
g21
sg22
g44
sg23
g24
sg25
g26
sg27
F-0.4222558705795954
sg29
F-0.6948653406852453
sg30
F-0.35866737382826813
sg31
g45
sg32
F-0.32888738598263617
sg33
F-0.5749556893838222
sg34
F0.007262021099274623
sg35
F-0.42879223001825256
sg37
F-0.2961042080023902
ssS'MENDELSOHN JOHN'
p150
(dp151
g3
g40
sg4
g5
sg6
g7
sg8
F-1.1721082723491811
sg9
I00
sg10
g11
sg12
g41
sg14
g42
sg15
F0.506646606362547
sg17
g18
sg19
g43
sg20
g21
sg22
g44
sg23
g24
sg25
F0.33875480693440974
sg27
g28
sg29
g53
sg30
g83
sg31
g45
sg32
g79
sg33
g54
sg34
F-0.27648018542758096
sg35
g36
sg37
g56
ssS'HICKERSON GARY J'
p152
(dp153
g3
F-0.2918884031444864
sg4
g5
sg6
g7
sg8
F0.9685222475322381
sg9
I00
sg10
F-0.7848586470408535
sg12
S'gary.hickerson@enron.com'
p154
sg14
F-0.28622171956074083
sg15
g16
sg17
g18
sg19
F-0.23462698564567216
sg20
g21
sg22
F-0.31601301968018713
sg23
g24
sg25
g26
sg27
g28
sg29
F0.34558786972994826
sg30
F-0.44558841489868495
sg31
F-0.40203165026465054
sg32
F-0.3139556397726628
sg33
F-0.4081696341103626
sg34
F-0.05708464935110756
sg35
g36
sg37
F-0.3334059917305742
ssS'CLINE KENNETH W'
p155
(dp156
g3
g40
sg4
g5
sg6
g7
sg8
g51
sg9
I00
sg10
g11
sg12
g41
sg14
g42
sg15
g16
sg17
F-0.28460609935931264
sg19
g43
sg20
g21
sg22
g44
sg23
g24
sg25
g26
sg27
g28
sg29
g53
sg30
F-0.4840979054646199
sg31
g45
sg32
F-0.21572783651180427
sg33
g54
sg34
g55
sg35
g36
sg37
g56
ssS'LEWIS RICHARD'
p157
(dp158
g3
F-0.43437489411679486
sg4
g5
sg6
g7
sg8
g51
sg9
I00
sg10
g11
sg12
S'richard.lewis@enron.com'
p159
sg14
F-0.6311315918011479
sg15
g16
sg17
g18
sg19
F-0.3712624686222022
sg20
g21
sg22
F-0.3165561927163725
sg23
g24
sg25
g26
sg27
F-0.44369692493927015
sg29
g53
sg30
F-0.382923739301562
sg31
F-0.41202434446198
sg32
g79
sg33
g54
sg34
g55
sg35
F-0.38350788009975467
sg37
g56
ssS'HAYES ROBERT E'
p160
(dp161
g3
F-0.6078367092135182
sg4
F-0.6465732543495644
sg6
g7
sg8
g51
sg9
I00
sg10
g11
sg12
S'robert.hayes@enron.com'
p162
sg14
F-0.5621496173530665
sg15
g16
sg17
g18
sg19
F-0.9559944423540605
sg20
g21
sg22
F-0.3241606152229669
sg23
g24
sg25
g26
sg27
g28
sg29
g53
sg30
F-0.489929940024725
sg31
F-0.41202434446198
sg32
F-0.4427145591491005
sg33
g54
sg34
F-0.27565673337259117
sg35
g36
sg37
g56
ssS'KOPPER MICHAEL J'
p163
(dp164
g3
g40
sg4
g5
sg6
g59
sg8
F1.38677595900338
sg9
I01
sg10
F-0.1666673964452265
sg12
S'michael.kopper@enron.com'
p165
sg14
g42
sg15
g16
sg17
g18
sg19
g43
sg20
g21
sg22
g44
sg23
g24
sg25
g26
sg27
g28
sg29
F-0.2786840565191679
sg30
F-0.3623271668544506
sg31
g45
sg32
F-0.07218163011386221
sg33
F-0.3375044662581508
sg34
F0.0030765701831404284
sg35
g36
sg37
F0.31821203877921067
ssS'LEFF DANIEL P'
p166
(dp167
g3
F0.28967330729140317
sg4
g5
sg6
g7
sg8
g51
sg9
I00
sg10
F0.7427220542555077
sg12
S'dan.leff@enron.com'
p168
sg14
F0.024197165455625506
sg15
g16
sg17
g18
sg19
F1.2692119946922857
sg20
g21
sg22
F-0.29645879037751577
sg23
g24
sg25
g26
sg27
g28
sg29
F-0.13995696179714207
sg30
F-0.45792110152436866
sg31
F-0.2721266256993675
sg32
F-0.3497672948390497
sg33
F-0.05838354560773887
sg34
F0.004300839870937941
sg35
g36
sg37
F-0.3325806450623085
ssS'LAVORATO JOHN J'
p169
(dp170
g3
F2.007642221541764
sg4
g5
sg6
g7
sg8
F-0.10095802314782126
sg9
I00
sg10
F1.49364095310264
sg12
S'john.lavorato@enron.com'
p171
sg14
F5.3243122022165466
sg15
g16
sg17
g18
sg19
F2.363993193696781
sg20
g21
sg22
F1.0734236068818508
sg23
g24
sg25
g26
sg27
F0.14037196010474062
sg29
F4.715491353473761
sg30
F0.2778361328366324
sg31
F3.69497297064043
sg32
F-0.061906359160510176
sg33
F0.311636142126516
sg34
F0.822328102755006
sg35
F0.2181010519295614
sg37
F-0.33368230656981923
ssS'BERBERIAN DAVID'
p172
(dp173
g3
g40
sg4
g5
sg6
g7
sg8
F-0.9174040158017561
sg9
I00
sg10
g11
sg12
S'david.berberian@enron.com'
p174
sg14
g42
sg15
g16
sg17
g18
sg19
g43
sg20
g21
sg22
g44
sg23
g24
sg25
g26
sg27
F-0.22137114356620363
sg29
g53
sg30
F-0.1314055389063773
sg31
g45
sg32
F-0.1236588840676454
sg33
F-0.381104936923856
sg34
F-0.2524157397719289
sg35
F-0.24278125172197457
sg37
g56
ssS'DETMERING TIMOTHY J'
p175
(dp176
g3
g40
sg4
F0.0261412256326158
sg6
g7
sg8
F-0.0420099501491921
sg9
I00
sg10
F-0.38339033577369075
sg12
S'timothy.detmering@enron.com'
p177
sg14
g42
sg15
F-0.20613103872188943
sg17
F-0.24364943861330363
sg19
g43
sg20
g21
sg22
g44
sg23
g24
sg25
g26
sg27
F-0.28438982610023583
sg29
F-0.5387973591229662
sg30
F-0.2026988703605377
sg31
g45
sg32
F-0.3699738016322921
sg33
F-0.41544108383423006
sg34
F-0.14953861677895872
sg35
F-0.16941590983870958
sg37
F-0.3340039543123779
ssS'WAKEHAM JOHN'
p178
(dp179
g3
g40
sg4
g5
sg6
g7
sg8
F1.075314120764486
sg9
I00
sg10
g11
sg12
g41
sg14
g42
sg15
g16
sg17
g18
sg19
g43
sg20
g21
sg22
g44
sg23
g24
sg25
F0.47370094038780414
sg27
g28
sg29
g53
sg30
g83
sg31
g45
sg32
g79
sg33
g54
sg34
F-0.25403914077065004
sg35
g36
sg37
g56
ssS'POWERS WILLIAM'
p180
(dp181
g3
F-0.5501451680317955
sg4
g5
sg6
g7
sg8
g51
sg9
I00
sg10
g11
sg12
S'ken.powers@enron.com'
p182
sg14
F-0.7461015492146168
sg15
F0.5981996903034079
sg17
g18
sg19
F-0.9882438110069062
sg20
g21
sg22
F-0.3165561927163725
sg23
g24
sg25
F-1.7591370478520476
sg27
g28
sg29
g53
sg30
g83
sg31
F-0.41202434446198
sg32
g79
sg33
g54
sg34
g55
sg35
g36
sg37
g56
ssS'GOLD JOSEPH'
p183
(dp184
g3
g40
sg4
g5
sg6
g7
sg8
g51
sg9
I00
sg10
F-0.5118522224262351
sg12
S'joe.gold@enron.com'
p185
sg14
g42
sg15
g16
sg17
g18
sg19
g43
sg20
g21
sg22
g44
sg23
g24
sg25
g26
sg27
F-0.4400255448845232
sg29
F-0.31336583019967434
sg30
F-0.3787702898067092
sg31
g45
sg32
F-0.3139556397726628
sg33
F-0.06327257935064974
sg34
F-0.05021531176143999
sg35
F-0.45878123110486324
sg37
F0.2547359001616056
ssS'BANNANTINE JAMES M'
p186
(dp187
g3
F-0.5838308330170967
sg4
g5
sg6
g7
sg8
F0.04573983033368267
sg9
I00
sg10
g11
sg12
S'james.bannantine@enron.com'
p188
sg14
F-0.2977187153020877
sg15
F0.6113578587501431
sg17
F-0.30739984628649153
sg19
F-0.6037973899611415
sg20
g21
sg22
F-0.3149266736078165
sg23
g24
sg25
g26
sg27
F0.15070158962930552
sg29
g53
sg30
F0.28952209122041467
sg31
F-0.41202434446198
sg32
F0.27119563842805566
sg33
F-1.6011333861291162
sg34
F-0.17993309320674566
sg35
F0.19758299862825732
sg37
F0.28728564431069037
ssS'DUNCAN JOHN H'
p189
(dp190
g3
g40
sg4
g5
sg6
g7
sg8
g51
sg9
I00
sg10
g11
sg12
g41
sg14
g42
sg15
F0.59023855256942
sg17
g18
sg19
g43
sg20
g21
sg22
g44
sg23
g24
sg25
F0.308155990084307
sg27
F-0.5084713319367208
sg29
g53
sg30
F-0.45620333008516917
sg31
g45
sg32
g79
sg33
g54
sg34
F-0.268328505440235
sg35
F-0.47055786417226036
sg37
g56
ssS'SHAPIRO RICHARD S'
p191
(dp192
g3
F5.062583563312183
sg4
g5
sg6
g7
sg8
F1.8125771058694897
sg9
I00
sg10
g11
sg12
S'richard.shapiro@enron.com'
p193
sg14
F0.10467613564505382
sg15
g16
sg17
g18
sg19
F2.8434903855088276
sg20
g21
sg22
F0.32927654730796807
sg23
g24
sg25
g26
sg27
F-0.425224473749093
sg29
F-0.38272937756068726
sg30
F-0.3620257685329586
sg31
F0.23750077836443523
sg32
F-0.3414837827273281
sg33
F-0.08474819639225827
sg34
F-0.165035387917501
sg35
F-0.42762865903086317
sg37
F-0.3342917822699248
ssS'SHERRIFF JOHN R'
p194
(dp195
g3
F0.4309982236090461
sg4
g5
sg6
g7
sg8
g51
sg9
I00
sg10
F-0.22258120556999292
sg12
S'john.sherriff@enron.com'
p196
sg14
F-0.42418566845690364
sg15
g16
sg17
g18
sg19
F0.7863201324957293
sg20
g21
sg22
F-0.2807067723281416
sg23
g24
sg25
g26
sg27
F-0.1354026147881272
sg29
F0.20686077500792244
sg30
F-0.03414893863562304
sg31
F-0.18219237792340232
sg32
F0.06489547157952971
sg33
F0.8168664050833062
sg34
F0.18043294485197187
sg35
F-0.20438431832001802
sg37
F0.9979782043972945
ssS'SHELBY REX'
p197
(dp198
g3
F-0.7158631520974151
sg4
g5
sg6
g59
sg8
F-0.6790091598779402
sg9
I01
sg10
g11
sg12
S'rex.shelby@enron.com'
p199
sg14
F-0.5966406045771071
sg15
F0.612352470224376
sg17
g18
sg19
F-0.9211990709128324
sg20
g21
sg22
F-0.3094949432459634
sg23
g24
sg25
g26
sg27
F-0.22137114356620363
sg29
F-0.6948653406852453
sg30
F-0.1314055389063773
sg31
F-0.2721266256993675
sg32
F-0.1236588840676454
sg33
F-0.4078534841223684
sg34
F-0.06529608837021844
sg35
F-0.24278125172197457
sg37
F0.797317504653687
ssS'LEMAISTRE CHARLES'
p200
(dp201
g3
g40
sg4
g5
sg6
g7
sg8
g51
sg9
I00
sg10
g11
sg12
g41
sg14
g42
sg15
F0.59023855256942
sg17
g18
sg19
g43
sg20
g21
sg22
g44
sg23
g24
sg25
F0.5513898283204179
sg27
F-0.5029064863963791
sg29
g53
sg30
F-0.4499077941957203
sg31
g45
sg32
g79
sg33
g54
sg34
F-0.2672745542627234
sg35
F-0.46307929758852057
sg37
g56
ssS'DEFFNER JOSEPH M'
p202
(dp203
g3
F-0.5265264833869291
sg4
g5
sg6
g7
sg8
F-0.2725320501868777
sg9
I00
sg10
F-0.47645601968821216
sg12
S'joseph.deffner@enron.com'
p204
sg14
F0.5760529610402767
sg15
g16
sg17
g18
sg19
F-0.5299633090980477
sg20
g21
sg22
F-0.2904838869794773
sg23
g24
sg25
g26
sg27
F-0.5372290324399954
sg29
F-0.4174111512411937
sg30
F-0.488737051695935
sg31
F-0.3720535676726622
sg32
F-0.4469749939844113
sg33
F-0.4401628837882794
sg34
F-0.14911008023018246
sg35
F-0.5349955853698155
sg37
F-0.3164119095471115
ssS'KISHKILL JOSEPH G'
p205
(dp206
g3
g40
sg4
g5
sg6
g7
sg8
F1.3477591880966346
sg9
I00
sg10
g11
sg12
S'joe.kishkill@enron.com'
p207
sg14
g42
sg15
F0.5625953593869516
sg17
g18
sg19
g43
sg20
g21
sg22
g44
sg23
g24
sg25
g26
sg27
g28
sg29
g53
sg30
F-0.35477858542933194
sg31
g45
sg32
F-0.05026205959028206
sg33
F-0.6201143278474991
sg34
F-0.2022031869826842
sg35
g36
sg37
F5.780805527795796e-05
ssS'WHALLEY LAWRENCE G'
p208
(dp209
g3
F1.5275246976133332
sg4
g5
sg6
g7
sg8
F0.07907433666145788
sg9
I00
sg10
F0.07168101889470468
sg12
S'greg.whalley@enron.com'
p210
sg14
F1.3923396586759067
sg15
g16
sg17
g18
sg19
F2.3283491546594255
sg20
g21
sg22
F-0.028674483538155073
sg23
g24
sg25
g26
sg27
F0.26376964972915284
sg29
F1.247313985423116
sg30
F0.41743651852098757
sg31
F-0.17219968372607286
sg32
F0.7328538680393918
sg33
F1.2774517733069102
sg34
F0.2164976786147714
sg35
F0.05880601990304623
sg37
F-0.11818983217382015
ssS'MCCARTY DANNY J'
p211
(dp212
g3
F-0.24813575781875033
sg4
g5
sg6
g7
sg8
g51
sg9
I00
sg10
g11
sg12
S'danny.mccarty@enron.com'
p213
sg14
F-0.45867665568094435
sg15
g16
sg17
g18
sg19
F-0.5673046833276584
sg20
g21
sg22
F-0.21389648887734777
sg23
g24
sg25
g26
sg27
F-0.4560836043264545
sg29
g53
sg30
F-0.3969368478537767
sg31
F-0.3920389560673211
sg32
F-0.4679891387636484
sg33
g54
sg34
g55
sg35
F-0.4173479938511442
sg37
g56
ssS'MCCONNELL MICHAEL S'
p214
(dp215
g3
F0.4859794239298825
sg4
g5
sg6
g7
sg8
F0.5893069950005858
sg9
I00
sg10
F-0.22258120556999292
sg12
S'mike.mcconnell@enron.com'
p216
sg14
F0.311622058989298
sg15
g16
sg17
g18
sg19
F0.8593055457626956
sg20
g21
sg22
F1.1587017735629452
sg23
g24
sg25
g26
sg27
F-0.13915098368532827
sg29
F-0.07059341443612917
sg30
F-0.03838948596944434
sg31
F1.526558329819936
sg32
F0.14705719063357467
sg33
F0.45700868124886607
sg34
F-0.055022277686952795
sg35
F-0.24303327694287186
sg37
F-0.3344105113024129
ssS'DELAINEY DAVID W'
p217
(dp218
g3
F0.39460221776285864
sg4
g5
sg6
g59
sg8
F0.6936264324999994
sg9
I01
sg10
F0.6356225825215305
sg12
S'david.delainey@enron.com'
p219
sg14
F0.012700169714278606
sg15
g16
sg17
g18
sg19
F0.7812281269189641
sg20
g21
sg22
F1.3363193563955436
sg23
g24
sg25
g26
sg27
F-0.06974168600551031
sg29
F1.247313985423116
sg30
F0.04013357840619437
sg31
F5.6735264217116645
sg32
F0.07810748671200521
sg33
F0.45771437318635316
sg34
F0.22391802188004206
sg35
F-0.12154784681506775
sg37
F-0.3336038734513877
ssS'SULLIVAN-SHAKLOVITZ COLLEEN'
p220
(dp221
g3
g40
sg4
F-0.5115938500746167
sg6
g7
sg8
g51
sg9
I00
sg10
F-0.22258120556999292
sg12
g41
sg14
g42
sg15
g16
sg17
g18
sg19
g43
sg20
g21
sg22
g44
sg23
g24
sg25
g26
sg27
F-0.3744342984461311
sg29
F-0.7642288880462582
sg30
F-0.30456660472810576
sg31
g45
sg32
g79
sg33
F-0.684851683424819
sg34
F-0.17116854060967668
sg35
F-0.2904262015089346
sg37
F-0.3346825087222947
ssS'WROBEL BRUCE'
p222
(dp223
g3
g40
sg4
g5
sg6
g7
sg8
g51
sg9
I00
sg10
g11
sg12
g41
sg14
g42
sg15
g16
sg17
g18
sg19
g43
sg20
g21
sg22
g44
sg23
g24
sg25
g26
sg27
F-0.5399461026426701
sg29
g53
sg30
F-0.4918108859741888
sg31
g45
sg32
g79
sg33
g54
sg34
g55
sg35
F-0.5128566425886569
sg37
g56
ssS'LINDHOLM TOD A'
p224
(dp225
g3
g40
sg4
F-0.49446702739143544
sg6
g7
sg8
F0.07666696502685602
sg9
I00
sg10
F-0.6622779720467518
sg12
S'tod.lindholm@enron.com'
p226
sg14
g42
sg15
g16
sg17
g18
sg19
g43
sg20
g21
sg22
g44
sg23
g24
sg25
g26
sg27
F-0.14416689471980615
sg29
F-0.6948653406852453
sg30
F-0.044064009674894634
sg31
g45
sg32
F-0.28117407174564085
sg33
F-0.26889991886340137
sg34
F-0.18418135961305954
sg35
F-0.07458896568499478
sg37
F-0.33290661022423035
ssS'MEYER JEROME J'
p227
(dp228
g3
g40
sg4
g5
sg6
g7
sg8
F-1.128667142762627
sg9
I00
sg10
g11
sg12
g41
sg14
g42
sg15
F0.5760719733430463
sg17
g18
sg19
g43
sg20
g21
sg22
g44
sg23
g24
sg25
F-1.2520917886650507
sg27
g28
sg29
g53
sg30
g83
sg31
g45
sg32
g79
sg33
g54
sg34
F-0.2762690790067254
sg35
g36
sg37
g56
ssS'LAY KENNETH L'
p229
(dp230
g3
F0.8514882485979782
sg4
F-0.4953698270292954
sg6
g59
sg8
F0.9898415837197483
sg9
I01
sg10
F3.3068156102518467
sg12
S'kenneth.lay@enron.com'
p231
sg14
F0.668028926971052
sg15
F0.2983301689898635
sg17
g18
sg19
F1.047709752103004
sg20
F1.154528770395047
sg22
F-0.3111244623545193
sg23
g24
sg25
g26
sg27
F6.086093616869682
sg29
F4.021855879863632
sg30
F7.004258961194046
sg31
F-0.25214123730470855
sg32
F6.05140425398653
sg33
F4.4499999662225775
sg34
F10.63820079361608
sg35
F5.707630223270803
sg37
F7.119750017978311
ssS'BUTTS ROBERT H'
p232
(dp233
g3
g40
sg4
g5
sg6
g7
sg8
F-0.9712337130727634
sg9
I00
sg10
F-0.6622779720467518
sg12
S'bob.butts@enron.com'
p234
sg14
g42
sg15
F0.5371643010095006
sg17
g18
sg19
g43
sg20
g21
sg22
g44
sg23
g24
sg25
g26
sg27
g28
sg29
F-0.31336583019967434
sg30
F-0.4491820809188316
sg31
g45
sg32
F-0.3243909270578575
sg33
F-0.12742844477148024
sg34
F-0.14247724928474853
sg35
g36
sg37
F-0.22639155711463768
ssS'OLSON CINDY K'
p235
(dp236
g3
F-0.34454645415599167
sg4
F-0.5924712021683622
sg6
g7
sg8
F0.20818319558744736
sg9
I00
sg10
F-0.7491924300532904
sg12
S'cindy.olson@enron.com'
p237
sg14
F-0.5161616343876788
sg15
g16
sg17
g18
sg19
F-0.27196835987528284
sg20
g21
sg22
F-0.30243369377555424
sg23
g24
sg25
g26
sg27
F-0.20606172958173957
sg29
F-0.31336583019967434
sg30
F-0.11408592698059747
sg31
F-0.26213393150203806
sg32
F-0.07898365768660721
sg33
F0.2539952246725668
sg34
F-0.13721012827513412
sg35
F-0.24048320356779
sg37
F-0.3340996571082623
ssS'MCDONALD REBECCA'
p238
(dp239
g3
F-0.45683200410699565
sg4
g5
sg6
g7
sg8
g51
sg9
I00
sg10
g11
sg12
S'rebecca.mcdonald@enron.com'
p240
sg14
F-0.1252637791818842
sg15
g16
sg17
g18
sg19
F-0.387387152948625
sg20
g21
sg22
F-0.32361744218678157
sg23
g24
sg25
g26
sg27
F-0.329919999205649
sg29
g53
sg30
F-0.2542073689810313
sg31
F-0.40203165026465054
sg32
F-0.09483594229448657
sg33
g54
sg34
g55
sg35
F-0.40045066652278866
sg37
g56
ssS'CUMBERLAND MICHAEL S'
p241
(dp242
g3
g40
sg4
g5
sg6
g7
sg8
F-0.690720697559787
sg9
I00
sg10
F-0.5463920280380336
sg12
g41
sg14
g42
sg15
g16
sg17
g18
sg19
g43
sg20
g21
sg22
g44
sg23
g24
sg25
g26
sg27
g28
sg29
F-0.6081609064839791
sg30
F-0.4812780172581565
sg31
g45
sg32
F-0.4175911060701818
sg33
F-0.5599724381670954
sg34
F-0.19134116614724933
sg35
g36
sg37
F-0.33428602571077387
ssS'GAHN ROBERT S'
p243
(dp244
g3
g40
sg4
F-0.5960343134538678
sg6
g7
sg8
F-0.08918142136774193
sg9
I00
sg10
g11
sg12
g41
sg14
g42
sg15
F0.615669610946871
sg17
g18
sg19
g43
sg20
g21
sg22
g44
sg23
g24
sg25
g26
sg27
F-0.5156618733331023
sg29
F-0.4799285164776746
sg30
F-0.4643380233299898
sg31
g45
sg32
F-0.4053987505633926
sg33
F-0.519838326298327
sg34
F-0.18157852178507683
sg35
F-0.5230200233041056
sg37
F-0.2797181623792453
ssS'MCCLELLAN GEORGE'
p245
(dp246
g3
F-0.12771918528508744
sg4
g5
sg6
g7
sg8
F3.7861013334571494
sg9
I00
sg10
g11
sg12
S'george.mcclellan@enron.com'
p247
sg14
F-0.14825777066457801
sg15
F0.4840900494495813
sg17
g18
sg19
F0.24826487655088428
sg20
g21
sg22
F-0.3040632128841102
sg23
g24
sg25
g26
sg27
F-0.4305203319101748
sg29
F-0.20932050915815498
sg30
F-0.368016997737224
sg31
F-0.41202434446198
sg32
F-0.3139556397726628
sg33
F-0.11671886392817547
sg34
F-0.13750460223413088
sg35
F-0.4460072255002211
sg37
F-0.29767862693017166
ssS'HERMANN ROBERT J'
p248
(dp249
g3
g40
sg4
g5
sg6
g7
sg8
F-0.12654990178593106
sg9
I00
sg10
F-0.6912494580489312
sg12
S'robert.hermann@enron.com'
p250
sg14
g42
sg15
F0.3195598696138312
sg17
g18
sg19
g43
sg20
g21
sg22
g44
sg23
g24
sg25
g26
sg27
F-0.4683692104881323
sg29
F-0.3480476038801808
sg30
F-0.4108356117913878
sg31
g45
sg32
F-0.29638229061785354
sg33
F-0.12095301555309829
sg34
F-0.13974972903246616
sg35
F-0.504061216950272
sg37
F-0.03514067287313216
ssS'SCRIMSHAW MATTHEW'
p251
(dp252
g3
g40
sg4
g5
sg6
g7
sg8
g51
sg9
I00
sg10
g11
sg12
S'matthew.scrimshaw@enron.com'
p253
sg14
g42
sg15
g16
sg17
g18
sg19
g43
sg20
g21
sg22
g44
sg23
g24
sg25
g26
sg27
F-0.45599890306920265
sg29
g53
sg30
F-0.396841024923734
sg31
g45
sg32
g79
sg33
g54
sg34
g55
sg35
F-0.40004044365241037
sg37
g56
ssS'GATHMANN WILLIAM D'
p254
(dp255
g3
g40
sg4
g5
sg6
g7
sg8
g51
sg9
I00
sg10
g11
sg12
g41
sg14
g42
sg15
g16
sg17
F-0.18055043687769515
sg19
g43
sg20
g21
sg22
g44
sg23
g24
sg25
g26
sg27
F-0.29555320825608805
sg29
g53
sg30
F-0.21532805701097002
sg31
g45
sg32
F-0.3926672289162558
sg33
g54
sg34
g55
sg35
F-0.2192570794077745
sg37
g56
ssS'HAEDICKE MARK E'
p256
(dp257
g3
F0.749269678987409
sg4
F1.0206324212140228
sg6
g7
sg8
F0.47663766489467024
sg9
I00
sg10
F0.2744814209099615
sg12
S'mark.haedicke@enron.com'
p258
sg14
F1.3233576842278254
sg15
F-0.3751650995450142
sg17
F-0.24748688269348684
sg19
F0.5690612278870852
sg20
g21
sg22
F0.7236201715785073
sg23
g24
sg25
g26
sg27
F-0.45010810652451644
sg29
F-0.035911640755622726
sg30
F-0.3901767391325714
sg31
F0.19753000157511738
sg32
F-0.2770305377305374
sg33
F0.5083096623364308
sg34
F0.13023082617938456
sg35
F-0.4274626424170975
sg37
F-0.2971065688645472
ssS'BOWEN JR RAYMOND M'
p259
(dp260
g3
F-0.08357934840779624
sg4
g5
sg6
g59
sg8
F0.2540750728740917
sg9
I01
sg10
F0.26399026639885226
sg12
S'raymond.bowen@enron.com'
p261
sg14
F0.8634778545739492
sg15
F0.6158914613183915
sg17
g18
sg19
F0.35349965847069625
sg20
g21
sg22
F-0.31601301968018713
sg23
g24
sg25
g26
sg27
g28
sg29
F0.10281545396640308
sg30
F-0.4745252559820663
sg31
F-0.26213393150203806
sg32
F-0.39798243807229605
sg33
F-0.030974470755738507
sg34
F0.004865863097201927
sg35
g36
sg37
F-0.3336326562471424
ssS'GILLIS JOHN'
p262
(dp263
g3
g40
sg4
g5
sg6
g7
sg8
g51
sg9
I00
sg10
g11
sg12
g41
sg14
g42
sg15
g16
sg17
g18
sg19
g43
sg20
g21
sg22
g44
sg23
g24
sg25
g26
sg27
F-0.5471834597499288
sg29
g53
sg30
F-0.4999985420525474
sg31
g45
sg32
F-0.4763090990398453
sg33
g54
sg34
g55
sg35
F-0.5363729959385724
sg37
g56
ssS'FITZGERALD JAY L'
p264
(dp265
g3
F-0.44056995894167783
sg4
g5
sg6
g7
sg8
F-0.6576247595921976
sg9
I00
sg10
F-0.22027043984645908
sg12
S'jay.fitzgerald@enron.com'
p266
sg14
F-0.7346045534732699
sg15
g16
sg17
g18
sg19
F-0.38484115016024245
sg20
g21
sg22
F-0.32198792307822566
sg23
g24
sg25
g26
sg27
F-0.33940897551726545
sg29
F-0.590820019643726
sg30
F-0.2649422924377287
sg31
F-0.3320827908833443
sg32
F-0.08474157869407886
sg33
F-0.47947839300956274
sg34
F-0.1273767637889506
sg35
F-0.41733235592257484
sg37
F-0.12942375735687559
ssS'MORAN MICHAEL P'
p267
(dp268
g3
F-0.5427885285522469
sg4
g5
sg6
g7
sg8
g51
sg9
I00
sg10
g11
sg12
S'michael.moran@enron.com'
p269
sg14
F-0.7461015492146168
sg15
g16
sg17
g18
sg19
F-0.8906470374522418
sg20
g21
sg22
F-0.3203584039696697
sg23
g24
sg25
g26
sg27
F-0.5288495614150645
sg29
g53
sg30
F-0.47925731677973266
sg31
F-0.41202434446198
sg32
F-0.438187874917196
sg33
g54
sg34
g55
sg35
F-0.5273291818068644
sg37
g56
ssS'REDMOND BRIAN L'
p270
(dp271
g3
F-0.15598416854861605
sg4
g5
sg6
g7
sg8
F-0.8567425882163383
sg9
I00
sg10
g11
sg12
S'brian.redmond@enron.com'
p272
sg14
F1.5992855820201508
sg15
g16
sg17
g18
sg19
F-0.0962941674768871
sg20
g21
sg22
F-0.21063745066023587
sg23
g24
sg25
g26
sg27
F0.5088332535920884
sg29
g53
sg30
F0.6946781242641129
sg31
F0.07761767120716379
sg32
F-0.34054101983888846
sg33
F-1.057112648752533
sg34
F-0.2647411718173387
sg35
F0.8272609214213454
sg37
g56
ssS'BAZELIDES PHILIP J'
p273
(dp274
g3
g40
sg4
F-0.12169841987545515
sg6
g7
sg8
g51
sg9
I00
sg10
F-0.7564353015538352
sg12
g41
sg14
g42
sg15
g16
sg17
g18
sg19
g43
sg20
g21
sg22
g44
sg23
g24
sg25
g26
sg27
F-0.3423308982814086
sg29
g53
sg30
F-0.2682478773806544
sg31
g45
sg32
g79
sg33
F-1.1475654185318842
sg34
F-0.18584164890299362
sg35
F-0.24728261127703388
sg37
F-0.3341701749578612
ssS'BELDEN TIMOTHY N'
p275
(dp276
g3
F2.2910664372801604
sg4
F1.0101509484425115
sg6
g59
sg8
F-0.7989222929204055
sg9
I01
sg10
g11
sg12
S'tim.belden@enron.com'
p277
sg14
F1.8752134798124764
sg15
F-1.8611910689711968
sg17
g18
sg19
F3.687065976059578
sg20
g21
sg22
F-0.06778294214349781
sg23
g24
sg25
g26
sg27
F-0.4084866393607826
sg29
F2.8079931074104327
sg30
F-0.34309017789717794
sg31
F0.6671866288496022
sg32
F-0.43998050232364444
sg33
F-0.3956873551200902
sg34
F0.303349157768324
sg35
F-0.36484073929737804
sg37
F-0.1831871415470606
ssS'DURAN WILLIAM D'
p278
(dp279
g3
F-0.45296008859144377
sg4
g5
sg6
g7
sg8
F-0.6160921768871296
sg9
I00
sg10
F0.4157139385922666
sg12
S'w.duran@enron.com'
p280
sg14
F0.47257999936815465
sg15
g16
sg17
g18
sg19
F-0.4900759320800544
sg20
g21
sg22
F-0.3241606152229669
sg23
g24
sg25
g26
sg27
F-0.33674697466235687
sg29
F-0.31336583019967434
sg30
F-0.26193075837117996
sg31
F-0.38204626186999163
sg32
F-0.4259915190021107
sg33
F-0.41435714101824983
sg34
F-0.05587608353585497
sg35
F-0.2741529366323247
sg37
F-0.3336707934515174
ssS'THORN TERENCE H'
p281
(dp282
g3
F-0.6999882984836525
sg4
F-0.6398836951772775
sg6
g7
sg8
F-0.17452383021601484
sg9
I00
sg10
F-0.6333064860445722
sg12
S'terence.thorn@enron.com'
p283
sg14
F-0.7461015492146168
sg15
g16
sg17
g18
sg19
F-0.9364750876431277
sg20
g21
sg22
F-0.30840859717359276
sg23
g24
sg25
g26
sg27
F0.09310324633730037
sg29
g53
sg30
F0.22436081500189234
sg31
F-0.41202434446198
sg32
F-0.3476372996662997
sg33
F-0.34999239078392314
sg34
F-0.18043308764535718
sg35
F0.27146657419085657
sg37
F-0.027809694794412677
ssS'FASTOW ANDREW S'
p284
(dp285
g3
g40
sg4
g5
sg6
g59
sg8
F0.037498377890901546
sg9
I01
sg10
F1.1467653511985443
sg12
S'andrew.fastow@enron.com'
p286
sg14
g42
sg15
F-0.8545009565683013
sg17
g18
sg19
g43
sg20
g21
sg22
g44
sg23
g24
sg25
g26
sg27
g28
sg29
F0.06813368028589663
sg30
F-0.23843393503665886
sg31
g45
sg32
F0.28757953284950116
sg33
F0.8841498971710797
sg34
F-0.02100927068141515
sg35
g36
sg37
F-0.13514433801312017
ssS'FOY JOE'
p287
(dp288
g3
F-0.7809113327586864
sg4
F-0.5117784431277186
sg6
g7
sg8
g51
sg9
I00
sg10
g11
sg12
S'tracy.foy@enron.com'
p289
sg14
F-0.7461015492146168
sg15
g16
sg17
g18
sg19
F-0.9967304869681813
sg20
g21
sg22
F-0.32361744218678157
sg23
g24
sg25
g26
sg27
F-0.5123026431193777
sg29
g53
sg30
F-0.4605377104159811
sg31
F-0.41202434446198
sg32
g79
sg33
g54
sg34
F-0.25733969427814546
sg35
F-0.4757067430719194
sg37
g56
ssS'CALGER CHRISTOPHER F'
p290
(dp291
g3
F0.20294239974304148
sg4
g5
sg6
g59
sg8
F-0.39849614436496383
sg9
I01
sg10
F-0.4301537907595288
sg12
S'christopher.calger@enron.com'
p292
sg14
F1.5418006033134164
sg15
F0.338135857659803
sg17
g18
sg19
F0.8584568781665681
sg20
g21
sg22
F-0.2524617744465052
sg23
g24
sg25
g26
sg27
g28
sg29
F0.03345190660539018
sg30
F-0.493816585418836
sg31
F-0.16220698952874338
sg32
F-0.4540005999319254
sg33
F-0.24783078037778544
sg34
F-0.10372188356087954
sg35
g36
sg37
F-0.33444936807668174
ssS'RICE KENNETH D'
p293
(dp294
g3
F-0.4525728970398886
sg4
g5
sg6
g59
sg8
F-0.15706496385696536
sg9
I01
sg10
F1.0088100880128057
sg12
S'ken.rice@enron.com'
p295
sg14
F-0.263227728078047
sg15
F-3.1030776041918124
sg17
g18
sg19
F-0.26517901910626274
sg20
g21
sg22
F-0.320901577005855
sg23
g24
sg25
g26
sg27
F2.49135886385462
sg29
F0.3802696434104547
sg30
F2.937518656077508
sg31
F-0.3720535676726622
sg32
F0.7116014767216334
sg33
F0.7708891639721444
sg34
F-0.22326597968478318
sg35
F3.061145563667482
sg37
F-0.2089901983712461
ssS'KAMINSKI WINCENTY J'
p296
(dp297
g3
F0.9808102268174104
sg4
g5
sg6
g7
sg8
F0.6374761157253671
sg9
I00
sg10
F-0.49022674641476816
sg12
S'vince.kaminski@enron.com'
p298
sg14
F-0.2747247238193939
sg15
g16
sg17
g18
sg19
F-0.5036546136180947
sg20
g21
sg22
F7.4736314922534275
sg23
g24
sg25
g26
sg27
F-0.4267079635007051
sg29
F-0.5561382459632195
sg30
F-0.3637040474546644
sg31
F1.2967263632813586
sg32
F-0.4540005999319254
sg33
F-0.050733845005378315
sg34
F-0.1619501566355712
sg35
F-0.383592797688614
sg37
F-0.33143940721063503
ssS'LOCKHART EUGENE E'
p299
(dp300
g3
g40
sg4
g5
sg6
g7
sg8
g51
sg9
I00
sg10
g11
sg12
g41
sg14
g42
sg15
g16
sg17
g18
sg19
g43
sg20
g21
sg22
g44
sg23
g24
sg25
g26
sg27
g28
sg29
g53
sg30
g83
sg31
g45
sg32
g79
sg33
g54
sg34
g55
sg35
g36
sg37
g56
ssS'COX DAVID'
p301
(dp302
g3
F-0.7634877129387031
sg4
g5
sg6
g7
sg8
F-0.5710678209102517
sg9
I00
sg10
g11
sg12
S'chip.cox@enron.com'
p303
sg14
F-0.7461015492146168
sg15
F0.5729894208124462
sg17
g18
sg19
F-0.9381724228353827
sg20
g21
sg22
F-0.31275398146307526
sg23
g24
sg25
g26
sg27
F-0.4917092778598352
sg29
F-0.2786840565191679
sg30
F-0.43724033960198017
sg31
F-0.3720535676726622
sg32
F-0.34196472070247746
sg33
F0.17049775462908887
sg34
F-0.16041433897970123
sg35
F-0.5167804898049213
sg37
F-0.3344436115175308
ssS'OVERDYKE JR JERE C'
p304
(dp305
g3
g40
sg4
g5
sg6
g7
sg8
F-0.7668456924917916
sg9
I00
sg10
F-0.7076635431583261
sg12
S'jere.overdyke@enron.com'
p306
sg14
g42
sg15
g16
sg17
g18
sg19
g43
sg20
g21
sg22
g44
sg23
g24
sg25
g26
sg27
F0.4299866663103509
sg29
g53
sg30
F0.6054786098491511
sg31
g45
sg32
F0.3971924981209648
sg33
F-1.0678335206668377
sg34
F-0.25016945362729837
sg35
F0.41949993377449196
sg37
F-0.33467243474378056
ssS'PEREIRA PAULO V. FERRAZ'
p307
(dp308
g3
g40
sg4
g5
sg6
g7
sg8
F-0.5693110902579747
sg9
I00
sg10
g11
sg12
g41
sg14
g42
sg15
F0.509300318940543
sg17
g18
sg19
g43
sg20
g21
sg22
g44
sg23
g24
sg25
F0.277946347375382
sg27
g28
sg29
g53
sg30
g83
sg31
g45
sg32
g79
sg33
g54
sg34
F-0.27355083352480514
sg35
g36
sg37
g56
ssS'STABLER FRANK'
p309
(dp310
g3
g40
sg4
g5
sg6
g7
sg8
F-0.8171619284582448
sg9
I00
sg10
g11
sg12
S'frank.stabler@enron.com'
p311
sg14
g42
sg15
g16
sg17
g18
sg19
g43
sg20
g21
sg22
g44
sg23
g24
sg25
g26
sg27
g28
sg29
F-0.48677469860220657
sg30
F-0.43477573098118616
sg31
g45
sg32
F-0.2825577685262692
sg33
F-0.25170926326621473
sg34
F-0.1592872435904703
sg35
g36
sg37
F-0.0785811073658977
ssS'SKILLING JEFFREY K'
p312
(dp313
g3
F0.601362506293328
sg4
g5
sg6
g59
sg8
F-0.5390779726126145
sg9
I01
sg10
F1.359931750905381
sg12
S'jeff.skilling@enron.com'
p314
sg14
F0.2656340760239104
sg15
g16
sg17
g18
sg19
F0.7345514091319508
sg20
g21
sg22
F-0.27201600374917656
sg23
g24
sg25
g26
sg27
F2.971846770833081
sg29
F3.050766216809451
sg30
F3.481096881367002
sg31
F-0.11224351854209606
sg32
F2.5319241542935598
sg33
F4.66982018198207
sg34
F0.6386200913149007
sg35
F2.9621947522809178
sg37
F-0.31888075385297004
ssS'BLAKE JR. NORMAN P'
p315
(dp316
g3
g40
sg4
g5
sg6
g7
sg8
F-1.1475791073155353
sg9
I00
sg10
g11
sg12
g41
sg14
g42
sg15
F0.49599566555950236
sg17
g18
sg19
g43
sg20
g21
sg22
g44
sg23
g24
sg25
F0.5828156402205235
sg27
g28
sg29
g53
sg30
g83
sg31
g45
sg32
g79
sg33
g54
sg34
F-0.2763609835494044
sg35
g36
sg37
g56
ssS'SHERRICK JEFFREY B'
p317
(dp318
g3
F-0.5656328300940029
sg4
g5
sg6
g7
sg8
g51
sg9
I00
sg10
g11
sg12
S'jeffrey.sherrick@enron.com'
p319
sg14
F-0.2977187153020877
sg15
g16
sg17
g18
sg19
F-0.5036546136180947
sg20
g21
sg22
F-0.3170993657525578
sg23
g24
sg25
g26
sg27
F-0.3108281193322467
sg29
g53
sg30
F-0.23260863563457593
sg31
F-0.23215584891004964
sg32
F-0.32955589865789
sg33
g54
sg34
g55
sg35
F-0.2787715806516544
sg37
g56
ssS'PRENTICE JAMES'
p320
(dp321
g3
g40
sg4
F-0.21503890545783572
sg6
g7
sg8
g51
sg9
I00
sg10
g11
sg12
S'james.prentice@enron.com'
p322
sg14
g42
sg15
g16
sg17
g18
sg19
g43
sg20
g21
sg22
g44
sg23
g24
sg25
g26
sg27
F-0.4106062003749203
sg29
g53
sg30
F-0.3454880472248432
sg31
g45
sg32
F-0.41720484442470607
sg33
g54
sg34
F-0.2170162599923747
sg35
F-0.37700650221522264
sg37
g56
ssS'GRAY RODNEY'
p323
(dp324
g3
g40
sg4
F-0.5801631888924178
sg6
g7
sg8
g51
sg9
I00
sg10
F-0.4413703912801326
sg12
g41
sg14
g42
sg15
g16
sg17
g18
sg19
g43
sg20
g21
sg22
g44
sg23
g24
sg25
g26
sg27
g28
sg29
g53
sg30
g83
sg31
g45
sg32
g79
sg33
F-1.5664810892307477
sg34
F-0.15564362897469483
sg35
g36
sg37
F0.15510785050621628
ssS'PICKERING MARK R'
p325
(dp326
g3
F-0.4552832379007749
sg4
g5
sg6
g7
sg8
F-0.4888268007443938
sg9
I00
sg10
g11
sg12
S'mark.pickering@enron.com'
p327
sg14
F-0.6656225790251885
sg15
g16
sg17
g18
sg19
F-0.38059781217960487
sg20
F-0.5945122473136027
sg22
F-0.2942860982327745
sg23
g24
sg25
g26
sg27
F-0.5548746315805464
sg29
F-0.6255017933242324
sg30
F-0.5086996008583231
sg31
F-0.41202434446198
sg32
g79
sg33
F2.0942083306835215
sg34
F-0.1303454280706476
sg35
F-0.5329190139249043
sg37
g56
ssS'THE TRAVEL AGENCY IN THE PARK'
p328
(dp329
g3
g40
sg4
g5
sg6
g7
sg8
g51
sg9
I00
sg10
g11
sg12
g41
sg14
g42
sg15
g16
sg17
g18
sg19
g43
sg20
g21
sg22
g44
sg23
g24
sg25
g26
sg27
g28
sg29
g53
sg30
g83
sg31
g45
sg32
g79
sg33
g54
sg34
F-0.23833263334778296
sg35
g36
sg37
F-0.07424569875534755
ssS'NOLES JAMES L'
p330
(dp331
g3
g40
sg4
F-0.05212157527622781
sg6
g7
sg8
g51
sg9
I00
sg10
g11
sg12
g41
sg14
g42
sg15
g16
sg17
F-0.18630699306140563
sg19
g43
sg20
g21
sg22
g44
sg23
g24
sg25
g26
sg27
g28
sg29
g53
sg30
F-0.4566694336346579
sg31
g45
sg32
F-0.30410352311907246
sg33
g54
sg34
F-0.1948776993233896
sg35
g36
sg37
g56
ssS'KEAN STEVEN J'
p332
(dp333
g3
F4.135259797337512
sg4
g5
sg6
g7
sg8
F-0.2654400634795371
sg9
I00
sg10
F-0.517420542035854
sg12
S'steven.kean@enron.com'
p334
sg14
F0.8634778545739492
sg15
g16
sg17
g18
sg19
F2.0898735601475935
sg20
g21
sg22
F3.340627859919359
sg23
g24
sg25
g26
sg27
F0.27385058770287285
sg29
F-0.13995696179714207
sg30
F0.42884113098557103
sg31
F3.455148309904523
sg32
F1.326433117540301
sg33
F0.6788782263948215
sg34
F-0.09231549694225989
sg35
F-0.17047365205368756
sg37
F-0.33391328850575064
ssS'FOWLER PEGGY'
p335
(dp336
g3
F-0.6028032190433008
sg4
g5
sg6
g7
sg8
g51
sg9
I00
sg10
g11
sg12
S'kulvinder.fowler@enron.com'
p337
sg14
F-0.7461015492146168
sg15
g16
sg17
g18
sg19
F-0.9899411461991612
sg20
g21
sg22
F-0.3111244623545193
sg23
g24
sg25
g26
sg27
F-0.3037543466020127
sg29
g53
sg30
F-0.22460604333005374
sg31
F-0.41202434446198
sg32
F-0.26102846005646085
sg33
g54
sg34
g55
sg35
F-0.2972990711151789
sg37
g56
ssS'WASAFF GEORGE'
p338
(dp339
g3
F-0.6481046305752576
sg4
F-0.007991425967847894
sg6
g7
sg8
g51
sg9
I00
sg10
F-0.6333064860445722
sg12
S'george.wasaff@enron.com'
p340
sg14
F-0.49316764290498505
sg15
F-0.0024150774744196813
sg17
g18
sg19
F-0.7124268422654635
sg20
g21
sg22
F-0.3143835005716312
sg23
g24
sg25
g26
sg27
F-0.2805252297589783
sg29
F-0.6081609064839791
sg30
F-0.19832683437351087
sg31
F-0.34207548508067376
sg32
F-0.33748204096182965
sg33
F-0.1360096587313238
sg34
F-0.16747560107879367
sg35
F-0.23480518080607388
sg37
F-0.3337736919463404
ssS'WHITE JR THOMAS E'
p341
(dp342
g3
g40
sg4
g5
sg6
g7
sg8
F0.5890684266404
sg9
I00
sg10
g11
sg12
S'thomas.white@enron.com'
p343
sg14
g42
sg15
g16
sg17
g18
sg19
g43
sg20
g21
sg22
g44
sg23
g24
sg25
g26
sg27
F1.4903123193303909
sg29
F-0.5214564722827131
sg30
F1.8050299998561292
sg31
g45
sg32
F5.64486498334783
sg33
F0.18887397268125386
sg34
F-0.07262378932698581
sg35
F-0.3023048447847902
sg37
F0.4462674166617193
ssS'CHRISTODOULOU DIOMEDES'
p344
(dp345
g3
g40
sg4
g5
sg6
g7
sg8
g51
sg9
I00
sg10
g11
sg12
S'diomedes.christodoulou@enron.com'
p346
sg14
g42
sg15
g16
sg17
g18
sg19
g43
sg20
g21
sg22
g44
sg23
g24
sg25
g26
sg27
F0.26360024721464914
sg29
g53
sg30
F0.4172448726609022
sg31
g45
sg32
F-0.0874285195996035
sg33
g54
sg34
g55
sg35
F0.39414776034508237
sg37
g56
ssS'ALLEN PHILLIP K'
p347
(dp348
g3
F0.32064863141581806
sg4
F1.5730077425950044
sg6
g7
sg8
F-0.8745484630992943
sg9
I00
sg10
F-0.5118522224262351
sg12
S'phillip.allen@enron.com'
p349
sg14
F-0.2057427493713125
sg15
F-2.6537180844495682
sg17
F-0.19449078398418435
sg19
F0.1956474855909783
sg20
g21
sg22
F0.8615861227695776
sg23
g24
sg25
g26
sg27
F-0.3247547108740369
sg29
F2.0623356669150175
sg30
F-0.24836385403793387
sg31
F0.23750077836443523
sg32
F-0.4540005999319254
sg33
F-0.46368218468085065
sg34
F0.19614250873325376
sg35
F-0.2236620656821155
sg37
F-0.3346897044212334
ssS'SHARP VICTORIA T'
p350
(dp351
g3
F0.4112514544797316
sg4
F-0.507346658651145
sg6
g7
sg8
F1.347802564162123
sg9
I00
sg10
F-0.375856590553684
sg12
S'vicki.sharp@enron.com'
p352
sg14
F-0.47017365142229123
sg15
g16
sg17
g18
sg19
F1.1037218134474203
sg20
g21
sg22
F-0.25680715873598775
sg23
g24
sg25
g26
sg27
F-0.49191183022741675
sg29
F-0.4174111512411937
sg30
F-0.43746948804650715
sg31
F-0.3520681792780032
sg32
F-0.4153139847700987
sg33
F-0.2029092544051043
sg34
F-0.11033922142400407
sg35
F-0.4870462414848886
sg37
F-0.33307139172992595
ssS'JAEDICKE ROBERT'
p353
(dp354
g3
g40
sg4
g5
sg6
g7
sg8
g51
sg9
I00
sg10
g11
sg12
g41
sg14
g42
sg15
F0.59023855256942
sg17
F-0.17318447895838435
sg19
g43
sg20
g21
sg22
g44
sg23
g24
sg25
F0.46037172605246524
sg27
F-0.5003530005707292
sg29
g53
sg30
F-0.44701902369130286
sg31
g45
sg32
F-0.490419428079693
sg33
g54
sg34
F-0.26766894279334824
sg35
F-0.45964768144943435
sg37
g56
ssS'WINOKUR JR. HERBERT S'
p355
(dp356
g3
g40
sg4
g5
sg6
g7
sg8
F-1.1446729109278175
sg9
I00
sg10
g11
sg12
g41
sg14
g42
sg15
F0.59023855256942
sg17
g18
sg19
g43
sg20
g21
sg22
g44
sg23
g24
sg25
F0.4562124274186277
sg27
g28
sg29
g53
sg30
g83
sg31
g45
sg32
g79
sg33
g54
sg34
F-0.2675380420571013
sg35
g36
sg37
g56
ssS'BROWN MICHAEL'
p357
(dp358
g3
F-0.22761460558632546
sg4
g5
sg6
g7
sg8
F-0.10635834330111732
sg9
I00
sg10
g11
sg12
S'michael.brown@enron.com'
p359
sg14
F-0.5966406045771071
sg15
g16
sg17
g18
sg19
F-0.35259178150739684
sg20
g21
sg22
F-0.30840859717359276
sg23
g24
sg25
g26
sg27
g28
sg29
g53
sg30
g83
sg31
F-0.40203165026465054
sg32
g79
sg33
g54
sg34
F-0.27130106934128884
sg35
g36
sg37
g56
ssS'BADUM JAMES P'
p360
(dp361
g3
g40
sg4
F-0.5139307360788022
sg6
g7
sg8
F-1.099713619049172
sg9
I00
sg10
g11
sg12
g41
sg14
g42
sg15
g16
sg17
g18
sg19
g43
sg20
g21
sg22
g44
sg23
g24
sg25
g26
sg27
F-0.5238870960620794
sg29
g53
sg30
F-0.47364325642470867
sg31
g45
sg32
g79
sg33
g54
sg34
F-0.2572647583494244
sg35
F-0.49127502830825603
sg37
g56
ssS'HUGHES JAMES A'
p362
(dp363
g3
F-0.5245905256291532
sg4
g5
sg6
g7
sg8
g51
sg9
I00
sg10
g11
sg12
S'james.hughes@enron.com'
p364
sg14
F-0.3437066982674753
sg15
g16
sg17
g18
sg19
F-0.49856260804132957
sg20
g21
sg22
F-0.31221080842689
sg23
g24
sg25
g26
sg27
F-0.40744627519623083
sg29
g53
sg30
F-0.341913209032804
sg31
F-0.36206087347533267
sg32
F-0.348478274388095
sg33
g54
sg34
g55
sg35
F-0.40087525446708533
sg37
g56
ssS'REYNOLDS LAWRENCE'
p365
(dp366
g3
g40
sg4
F-0.6129090657914266
sg6
g7
sg8
F-0.9929434338496683
sg9
I00
sg10
F-0.6840065865483864
sg12
g41
sg14
g42
sg15
F0.4044786721097022
sg17
F-0.19819300607333312
sg19
g43
sg20
g21
sg22
g44
sg23
g24
sg25
g26
sg27
F0.012474008793113792
sg29
F-0.7642288880462582
sg30
F0.1331445799746107
sg31
g45
sg32
F-0.42046117677770417
sg33
F-1.1725130399059294
sg34
F-0.23492004483011805
sg35
F0.21840599153666437
sg37
F-0.18940854284943678
ssS'DIMICHELE RICHARD G'
p367
(dp368
g3
g40
sg4
g5
sg6
g7
sg8
F-0.3986262725614288
sg9
I00
sg10
F-0.059830985804149084
sg12
S'richard.dimichele@enron.com'
p369
sg14
g42
sg15
g16
sg17
g18
sg19
g43
sg20
g21
sg22
g44
sg23
g24
sg25
g26
sg27
F0.5666706817428221
sg29
F-0.13995696179714207
sg30
F0.7601098783059347
sg31
g45
sg32
F-0.4540005999319254
sg33
F-0.12024732361561115
sg34
F-0.026904230407473213
sg35
F0.9514035265512938
sg37
F-0.06518415508187735
ssS'BHATNAGAR SANJAY'
p370
(dp371
g3
F-0.6004800697339697
sg4
g5
sg6
g7
sg8
g51
sg9
I00
sg10
g11
sg12
S'sanjay.bhatnagar@enron.com'
p372
sg14
F-0.7461015492146168
sg15
g16
sg17
F3.8575706192270456
sg19
F-0.6054947251533965
sg20
g21
sg22
F-0.3149266736078165
sg23
g24
sg25
F1.1685227226930788
sg27
g28
sg29
g53
sg30
g83
sg31
F-0.40203165026465054
sg32
F-1.667687584304203
sg33
g54
sg34
F1.3525217206411184
sg35
F-0.06456450796288349
sg37
F-0.23559629519698747
ssS'CARTER REBECCA C'
p373
(dp374
g3
F-0.682177487112114
sg4
g5
sg6
g7
sg8
g51
sg9
I00
sg10
F-0.7781639160554699
sg12
S'rebecca.carter@enron.com'
p375
sg14
F-0.4126886727155567
sg15
F0.447158862244127
sg17
F-0.24162969014337188
sg19
F-0.8320889733194432
sg20
g21
sg22
F-0.32253109611441094
sg23
g24
sg25
g26
sg27
g28
sg29
F-0.6255017933242324
sg30
g83
sg31
F-0.34207548508067376
sg32
F-0.37342615399179746
sg33
F-0.1257743028700104
sg34
F-0.2261636076571159
sg35
g36
sg37
F-0.3344105113024129
ssS'BUCHANAN HAROLD G'
p376
(dp377
g3
F-0.3817168431052895
sg4
g5
sg6
g7
sg8
F-1.1623052815488204
sg9
I00
sg10
F-0.5118522224262351
sg12
S'john.buchanan@enron.com'
p378
sg14
F-0.7461015492146168
sg15
g16
sg17
g18
sg19
F-0.9789084674495034
sg20
g21
sg22
F-0.2627820621340262
sg23
g24
sg25
g26
sg27
F-0.4215030306509225
sg29
F-0.48677469860220657
sg30
F-0.3578156824820103
sg31
F-0.41202434446198
sg32
F-0.4259915190021107
sg33
F-0.20363752848459102
sg34
F-0.16534219310527462
sg35
F-0.38805615344052213
sg37
F-0.3339248016240525
ssS'YEAP SOON'
p379
(dp380
g3
g40
sg4
g5
sg6
g7
sg8
F0.01962743890971301
sg9
I00
sg10
g11
sg12
g41
sg14
g42
sg15
g16
sg17
g18
sg19
g43
sg20
g21
sg22
g44
sg23
g24
sg25
g26
sg27
F-0.5326899380677468
sg29
g53
sg30
F-0.4836019529193511
sg31
g45
sg32
g79
sg33
g54
sg34
F-0.2706888291022723
sg35
F-0.503105121270995
sg37
g56
ssS'MURRAY JULIA H'
p381
(dp382
g3
F0.045742629811635925
sg4
g5
sg6
g7
sg8
F0.07347882421346438
sg9
I00
sg10
F-0.7202209440511108
sg12
S'julia.murray@enron.com'
p383
sg14
F-0.619634596059801
sg15
g16
sg17
g18
sg19
F-0.6632041216900676
sg20
g21
sg22
F-0.30623590502885145
sg23
g24
sg25
g26
sg27
F-0.47793138708756544
sg29
F-0.5561382459632195
sg30
F-0.4216533470774032
sg31
F-0.3920389560673211
sg32
F-0.4224613809257374
sg33
F-0.30939534500416316
sg34
F-0.1908945016382199
sg35
F-0.4653340686845713
sg37
F-0.33456162098012504
ssS'GARLAND C KEVIN'
p384
(dp385
g3
F-0.7220582169222981
sg4
g5
sg6
g7
sg8
F-0.12550887621421133
sg9
I00
sg10
F-0.4301537907595288
sg12
S'kevin.garland@enron.com'
p386
sg14
F-0.6311315918011479
sg15
g16
sg17
g18
sg19
F-0.8473649900497385
sg20
g21
sg22
F-0.3067790780650368
sg23
g24
sg25
g26
sg27
F-0.4375167098813863
sg29
F-0.24400228283866143
sg30
F-0.37593203298745803
sg31
F-0.14222160113408444
sg32
F-0.3944923040788834
sg33
F-0.2943669295034371
sg34
F-0.11139759919646125
sg35
F-0.42246286934798377
sg37
F-0.29103915551945864
ssS'DODSON KEITH'
p387
(dp388
g3
F-0.7348355381236192
sg4
g5
sg6
g7
sg8
F-0.5644963469887709
sg9
I00
sg10
g11
sg12
S'keith.dodson@enron.com'
p389
sg14
F-0.6311315918011479
sg15
g16
sg17
g18
sg19
F-0.9016797162018996
sg20
g21
sg22
F-0.3230742691505963
sg23
g24
sg25
g26
sg27
g28
sg29
F-0.7850379522545621
sg30
g83
sg31
F-0.38204626186999163
sg32
g79
sg33
F-0.35614602447881094
sg34
F-0.24277556453658325
sg35
g36
sg37
F-0.33424213194724794
ssS'YEAGER F SCOTT'
p390
(dp391
g3
g40
sg4
g5
sg6
g59
sg8
F-0.005313798746071957
sg9
I01
sg10
g11
sg12
S'scott.yeager@enron.com'
p392
sg14
g42
sg15
g16
sg17
g18
sg19
g43
sg20
g21
sg22
g44
sg23
g24
sg25
g26
sg27
F1.0493022341184732
sg29
g53
sg30
F1.3061132196987286
sg31
g45
sg32
F1.0795688105696613
sg33
F-0.7095565467723687
sg34
F-0.23852192297926403
sg35
F0.9726414700759257
sg37
F-0.22833871324744243
ssS'HIRKO JOSEPH'
p393
(dp394
g3
g40
sg4
F-0.6447909231057481
sg6
g59
sg8
F0.5158713161288573
sg9
I01
sg10
g11
sg12
S'joe.hirko@enron.com'
p395
sg14
g42
sg15
g16
sg17
g18
sg19
g43
sg20
g21
sg22
g44
sg23
g24
sg25
g26
sg27
F3.604047212963214
sg29
g53
sg30
F4.196308210037831
sg31
g45
sg32
g79
sg33
g54
sg34
F-0.26689502644370144
sg35
F5.0562341270769
sg37
F-0.33274398742821637
ssS'DIETRICH JANET R'
p396
(dp397
g3
F0.19287541940260666
sg4
g5
sg6
g7
sg8
F-1.0999521874093579
sg9
I00
sg10
F-0.22027043984645908
sg12
S'janet.dietrich@enron.com'
p398
sg14
F2.7604821518961877
sg15
g16
sg17
g18
sg19
F0.6157379456740986
sg20
g21
sg22
F-0.29645879037751577
sg23
g24
sg25
g26
sg27
F-0.30641458848512537
sg29
F-0.4174111512411937
sg30
F-0.2276155874635505
sg31
F-0.2721266256993675
sg32
F-0.3699738016322921
sg33
F-0.1918778780383054
sg34
F-0.12783976454123147
sg35
F-0.25630569606156844
sg37
F-0.334458722485302
ssS'DERRICK JR. JAMES V'
p399
(dp400
g3
F0.04148352274452888
sg4
g5
sg6
g7
sg8
F-0.06653911518283802
sg9
I00
sg10
F-0.3041904050598125
sg12
S'james.derrick@enron.com'
p401
sg14
F-0.010293821768415196
sg15
F-0.7461711017093499
sg17
F-0.6265128233515767
sg19
F0.1905554800142132
sg20
g21
sg22
F0.16306559823526143
sg23
g24
sg25
g26
sg27
F0.6362354454682988
sg29
F-0.2786840565191679
sg30
F0.8388088221490159
sg31
F-0.2121704605153907
sg32
F0.28445388050084125
sg33
F1.1758942351992614
sg34
F-0.21842507653135448
sg35
F1.0678075390759416
sg37
F-0.3294152570991865
ssS'FREVERT MARK A'
p402
(dp403
g3
F0.4650710801459025
sg4
F4.332032464389593
sg6
g7
sg8
F0.7112588031210022
sg9
I00
sg10
F1.0088100880128057
sg12
S'mark.frevert@enron.com'
p404
sg14
F2.0361714201913332
sg15
F-2.957256098030934
sg17
g18
sg19
F1.529752946703433
sg20
F-0.5600165230814445
sg22
F-0.31927205789729907
sg23
g24
sg25
g26
sg27
F1.4196912253886758
sg29
F0.553678511812987
sg30
F1.7251360246794327
sg31
F-0.3520681792780032
sg32
F1.3518014845049011
sg33
F4.38570296241425
sg34
F1.5418366469504678
sg35
F1.3590375924058051
sg37
F5.009893375611013
ssS'PAI LOU L'
p405
(dp406
g3
g40
sg4
g5
sg6
g7
sg8
F-0.4802817158431944
sg9
I00
sg10
g11
sg12
S'lou.pai@enron.com'
p407
sg14
g42
sg15
g16
sg17
g18
sg19
g43
sg20
g21
sg22
g44
sg23
g24
sg25
g26
sg27
F2.663926309841342
sg29
F-0.13995696179714207
sg30
F3.1327450180105005
sg31
g45
sg32
F3.247593198051553
sg33
F-0.12537911538501761
sg34
F0.05269353516197329
sg35
F2.2556089512744633
sg37
F0.9816231002795858
ssS'BAY FRANKLIN R'
p408
(dp409
g3
g40
sg4
F-0.45073863943392445
sg6
g7
sg8
F1.6255178234511025
sg9
I00
sg10
g11
sg12
S'frank.bay@enron.com'
p410
sg14
g42
sg15
F0.40273677517350565
sg17
F-0.18324525513363732
sg19
g43
sg20
g21
sg22
g44
sg23
g24
sg25
g26
sg27
g28
sg29
F-0.5561382459632195
sg30
F-0.5034620970654476
sg31
g45
sg32
F-0.44521348086471
sg33
F-0.2507551677667321
sg34
F-0.18926066652284135
sg35
g36
sg37
F-0.33474942872242436
ssS'HAYSLETT RODERICK J'
p411
(dp412
g3
F0.22268916887235599
sg4
g5
sg6
g7
sg8
g51
sg9
I00
sg10
g11
sg12
S'rod.hayslett@enron.com'
p413
sg14
F-0.3437066982674753
sg15
g16
sg17
g18
sg19
F-0.5138386247716249
sg20
g21
sg22
F0.24562789973542942
sg23
g24
sg25
g26
sg27
g28
sg29
g53
sg30
F-0.4600434416602179
sg31
F-0.032301964963460335
sg32
F-0.35593014606404544
sg33
g54
sg34
g55
sg35
g36
sg37
g56
ssS'FUGH JOHN L'
p414
(dp415
g3
g40
sg4
F-0.6135093810145397
sg6
g7
sg8
g51
sg9
I00
sg10
g11
sg12
g41
sg14
g42
sg15
g16
sg17
g18
sg19
g43
sg20
g21
sg22
g44
sg23
g24
sg25
g26
sg27
F-0.5349062425306624
sg29
g53
sg30
F-0.48610926856487663
sg31
g45
sg32
g79
sg33
g54
sg34
F-0.27116373950285905
sg35
F-0.5060836011543265
sg37
g56
ssS'FALLON JAMES B'
p416
(dp417
g3
F-0.1234600782179804
sg4
g5
sg6
g7
sg8
F0.9050847517555677
sg9
I00
sg10
F-0.43126281924369225
sg12
S'jim.fallon@enron.com'
p418
sg14
F-0.263227728078047
sg15
g16
sg17
g18
sg19
F0.36283500202809893
sg20
g21
sg22
F-0.289940713943292
sg23
g24
sg25
g26
sg27
F-0.24318469403005466
sg29
F0.9004962486180514
sg30
F-0.15608331097137637
sg31
F-0.042294659160789796
sg32
F0.10877461670965068
sg33
F0.11573606028008711
sg34
F0.11097250328830326
sg35
F-0.3671826100188326
sg37
F-0.045905438485386134
ssS'KOENIG MARK E'
p419
(dp420
g3
F0.1162114921946798
sg4
g5
sg6
g59
sg8
F1.5794307538697607
sg9
I01
sg10
F-0.517420542035854
sg12
S'mark.koenig@enron.com'
p421
sg14
F-0.1367607749232311
sg15
g16
sg17
g18
sg19
F0.928896288645152
sg20
g21
sg22
F-0.2975451364498864
sg23
g24
sg25
g26
sg27
F-0.298977114509695
sg29
F-0.3480476038801808
sg30
F-0.21920153823258312
sg31
F-0.26213393150203806
sg32
F0.044846314179265975
sg33
F0.1459848394885357
sg34
F-0.10918936068933888
sg35
F-0.41600931443105343
sg37
F-0.22653403195362337
ssS'SAVAGE FRANK'
p422
(dp423
g3
g40
sg4
g5
sg6
g7
sg8
g51
sg9
I00
sg10
g11
sg12
g41
sg14
g42
sg15
F0.4880345278255145
sg17
g18
sg19
g43
sg20
g21
sg22
g44
sg23
g24
sg25
F0.8564537082361484
sg27
g28
sg29
g53
sg30
g83
sg31
g45
sg32
g79
sg33
g54
sg34
F-0.27610055221344126
sg35
g36
sg37
g56
ssS'IZZO LAWRENCE L'
p424
(dp425
g3
F-0.6109342416259597
sg4
g5
sg6
g7
sg8
F-0.5660361973136063
sg9
I00
sg10
F-0.5029347990347641
sg12
S'larry.izzo@enron.com'
p426
sg14
F-0.42418566845690364
sg15
g16
sg17
g18
sg19
F-0.6275600826527119
sg20
g21
sg22
F-0.3203584039696697
sg23
g24
sg25
g26
sg27
F0.2287042763655483
sg29
g53
sg30
F0.37776689698573407
sg31
F-0.36206087347533267
sg32
F1.114506598668263
sg33
F-1.1224089123443428
sg34
F-0.06785603038527643
sg35
F-0.14444850218665833
sg37
F0.7832175325833582
ssS'TILNEY ELIZABETH A'
p427
(dp428
g3
F-0.6248731374819464
sg4
g5
sg6
g7
sg8
g51
sg9
I00
sg10
F-0.5463920280380336
sg12
S'elizabeth.tilney@enron.com'
p429
sg14
F-0.6311315918011479
sg15
F0.0064217854103068945
sg17
g18
sg19
F-0.6767828032281079
sg20
g21
sg22
F-0.3203584039696697
sg23
g24
sg25
g26
sg27
F-0.4007286266019184
sg29
F-0.6255017933242324
sg30
F-0.3343135016354261
sg31
F-0.3021047082913559
sg32
F-0.2536401504234368
sg33
F-0.20747084708902117
sg34
F-0.2344017116410178
sg35
F-0.4306447790445884
sg37
F-0.2253848788331174
ssS'MARTIN AMANDA K'
p430
(dp431
g3
F-0.21367570973033875
sg4
F-0.5864882155648815
sg6
g7
sg8
F-0.9972376643330122
sg9
I00
sg10
F5.09775639018354
sg12
S'a..martin@enron.com'
p432
sg14
F-0.6541255832838416
sg15
g16
sg17
g18
sg19
F-0.5936133788076113
sg20
g21
sg22
F-0.20574889333456803
sg23
g24
sg25
g26
sg27
F-0.2786473244085017
sg29
g53
sg30
F-0.19620235123283636
sg31
F-0.41202434446198
sg32
g79
sg33
F0.36921495868996645
sg34
F0.6095626573509051
sg35
F-0.16169859208971857
sg37
F1.6932755666046087
ssS'BUY RICHARD B'
p433
(dp434
g3
F0.5610945849315886
sg4
F-0.1489297732133092
sg6
g7
sg8
g51
sg9
I00
sg10
F0.027083472202389568
sg12
S'rick.buy@enron.com'
p435
sg14
F1.0474297864354998
sg15
F-0.12080993339919423
sg17
g18
sg19
F0.9815136796050579
sg20
g21
sg22
F0.2412825154459469
sg23
g24
sg25
g26
sg27
F-0.09271534602156149
sg29
F-0.20932050915815498
sg30
F0.01414336895751182
sg31
F0.297456943548412
sg32
F-0.1092409680788112
sg33
F0.2622828707864157
sg34
F-0.028216294228357443
sg35
F-0.07577963029281252
sg37
F-0.04655952751891146
ssS'GRAMM WENDY L'
p436
(dp437
g3
g40
sg4
g5
sg6
g7
sg8
g51
sg9
I00
sg10
g11
sg12
g41
sg14
g42
sg15
g16
sg17
g18
sg19
g43
sg20
g21
sg22
g44
sg23
g24
sg25
F0.7167888383209734
sg27
g28
sg29
g53
sg30
g83
sg31
g45
sg32
g79
sg33
g54
sg34
F-0.2639229895182364
sg35
g36
sg37
g56
ssS'CAUSEY RICHARD A'
p438
(dp439
g3
F-0.0704148356549199
sg4
g5
sg6
g59
sg8
F-0.5100593848009273
sg9
I01
sg10
F-0.45947757003149486
sg12
S'richard.causey@enron.com'
p440
sg14
F-0.0792757962164966
sg15
F0.36732669601775864
sg17
g18
sg19
F0.3467103177016761
sg20
g21
sg22
F-0.3040632128841102
sg23
g24
sg25
g26
sg27
g28
sg29
F-0.13995696179714207
sg30
F-0.13011254163789415
sg31
F-0.29211201409402643
sg32
F0.6021231918628039
sg33
F0.7401379321042049
sg34
F-0.07953781444657987
sg35
g36
sg37
F-0.11324710657284605
ssS'TAYLOR MITCHELL S'
p441
(dp442
g3
F-0.5966081542184178
sg4
F-0.47633812813427223
sg6
g7
sg8
g51
sg9
I00
sg10
g11
sg12
S'mitchell.taylor@enron.com'
p443
sg14
F-0.7461015492146168
sg15
g16
sg17
g18
sg19
F-0.7438275433221816
sg20
g21
sg22
F-0.3149266736078165
sg23
g24
sg25
g26
sg27
F-0.05204548259944469
sg29
F-0.4174111512411937
sg30
F0.060153376411770904
sg31
F-0.41202434446198
sg32
F-0.2594158510233354
sg33
F-0.10655125449286082
sg34
F-0.1613344383576689
sg35
F0.040311441824068955
sg37
g56
ssS'DONAHUE JR JEFFREY M'
p444
(dp445
g3
F-0.46806055910209604
sg4
g5
sg6
g7
sg8
F0.912545435019559
sg9
I00
sg10
g11
sg12
S'jeff.donahue@enron.com'
p446
sg14
F1.4153336501586005
sg15
F0.2983301689898635
sg17
g18
sg19
F-0.34325643794999416
sg20
g21
sg22
F-0.3187288848611137
sg23
g24
sg25
g26
sg27
F-0.41250751358083554
sg29
F-0.2786840565191679
sg30
F-0.34763901178228673
sg31
F-0.3021047082913559
sg32
F-0.3699738016322921
sg33
F-0.030974470755738507
sg34
F-0.18419495558324944
sg35
F-0.3988834187746547
sg37
F-0.3341579422696655
ssS'GLISAN JR BEN F'
p447
(dp448
g3
F-0.46496302668965456
sg4
g5
sg6
g59
sg8
F1.5568968878485776
sg9
I01
sg10
F-0.7827727000486966
sg12
S'ben.glisan@enron.com'
p449
sg14
F-0.14825777066457801
sg15
g16
sg17
g18
sg19
F-0.25669234314498757
sg20
g21
sg22
F-0.32198792307822566
sg23
g24
sg25
g26
sg27
F-0.4534295864973891
sg29
F-0.4174111512411937
sg30
F-0.3939343450218486
sg31
F-0.3520681792780032
sg32
F-0.3349702290417106
sg33
F-0.051445182478365346
sg34
F-0.14240326191208721
sg35
F-0.4681979916493131
sg37
F-0.19066347274434126
ss.